(lp0
(lp1
S'10153141187322605'
p2
aS'1425481905'
p3
a(dp4
S'787140095'
p5
VDenise Eng
p6
sS'522283005'
p7
VCollin Wan
p8
sS'100000123073934'
p9
VLee Kao Shing Alex
p10
sS'619837604'
p11
VClive Isaac Aw
p12
sS'714876677'
p13
VTan Wei Xiang
p14
sS'685609876'
p15
VTeresa Purnomo
p16
sS'533348190'
p17
VChan Bingjie
p18
sS'100000003405878'
p19
VJay Kritchai Vutipongsatorn
p20
sS'601910818'
p21
VLee Chu Yong Mark
p22
sS'100004018856838'
p23
VAng Jia Ming
p24
saa(lp25
S'965500826794937'
p26
aS'1425226729'
p27
a(dp28
S'601910818'
p29
VLee Chu Yong Mark
p30
sS'100000050865573'
p31
VAdeline Loo
p32
saa(lp33
S'965486536796366'
p34
aS'1425226352'
p35
a(dp36
S'601910818'
p37
VLee Chu Yong Mark
p38
sS'100000050865573'
p39
VAdeline Loo
p40
sS'533348190'
p41
VChan Bingjie
p42
saa(lp43
S'938774872800866'
p44
aS'1421014015'
p45
a(dp46
S'601910818'
p47
VLee Chu Yong Mark
p48
sS'100000050865573'
p49
VAdeline Loo
p50
saa(lp51
S'10155101095625051'
p52
aS'1420939270'
p53
a(dp54
S'100000956056616'
p55
VWong Siow Pin
p56
sS'100000050865573'
p57
VAdeline Loo
p58
sS'533759822'
p59
VTimothy Issac Low
p60
sS'804202275'
p61
VSzewei Foo
p62
sS'577907916'
p63
VSyakir Kamal
p64
sS'600850050'
p65
VJerome Tan
p66
sS'686691025'
p67
VPaxton Chia Wei Xuan
p68
sS'578588413'
p69
VTan Hong Wei
p70
sS'548717576'
p71
VEng Zi Guang
p72
sS'1763221972'
p73
VRajesh Kumar Rai
p74
sS'601910818'
p75
VLee Chu Yong Mark
p76
sS'598209810'
p77
VTravis Chia
p78
saa(lp79
S'10155101069815051'
p80
aS'1420938688'
p81
a(dp82
S'601910818'
p83
VLee Chu Yong Mark
p84
saa(lp85
S'10155101071510051'
p86
aS'1420938726'
p87
a(dp88
S'100000956056616'
p89
VWong Siow Pin
p90
sS'100000050865573'
p91
VAdeline Loo
p92
sS'533759822'
p93
VTimothy Issac Low
p94
sS'578359736'
p95
VCheah Pei Zhen
p96
sS'804202275'
p97
VSzewei Foo
p98
sS'577907916'
p99
VSyakir Kamal
p100
sS'600850050'
p101
VJerome Tan
p102
sS'1602644235'
p103
VJing Yi Chan
p104
sS'686691025'
p105
VPaxton Chia Wei Xuan
p106
sS'578588413'
p107
VTan Hong Wei
p108
sS'548717576'
p109
VEng Zi Guang
p110
sS'1763221972'
p111
VRajesh Kumar Rai
p112
sS'601910818'
p113
VLee Chu Yong Mark
p114
sS'598209810'
p115
VTravis Chia
p116
saa(lp117
S'10155101071435051'
p118
aS'1420938725'
p119
a(dp120
S'100000956056616'
p121
VWong Siow Pin
p122
sS'100000050865573'
p123
VAdeline Loo
p124
sS'533759822'
p125
VTimothy Issac Low
p126
sS'578359736'
p127
VCheah Pei Zhen
p128
sS'804202275'
p129
VSzewei Foo
p130
sS'577907916'
p131
VSyakir Kamal
p132
sS'600850050'
p133
VJerome Tan
p134
sS'1602644235'
p135
VJing Yi Chan
p136
sS'686691025'
p137
VPaxton Chia Wei Xuan
p138
sS'578588413'
p139
VTan Hong Wei
p140
sS'602140710'
p141
VGoh Yu Chen
p142
sS'1763221972'
p143
VRajesh Kumar Rai
p144
sS'601910818'
p145
VLee Chu Yong Mark
p146
sS'548717576'
p147
VEng Zi Guang
p148
sS'598209810'
p149
VTravis Chia
p150
saa(lp151
S'10152664792718160'
p152
aS'1420205017'
p153
a(dp154
S'531868159'
p155
VMelissa Chan
p156
sS'601910818'
p157
VLee Chu Yong Mark
p158
sS'616283047'
p159
VZheng Yi
p160
saa(lp161
S'10152664792563160'
p162
aS'1420205016'
p163
a(dp164
S'531868159'
p165
VMelissa Chan
p166
sS'601910818'
p167
VLee Chu Yong Mark
p168
sS'832975103'
p169
VAlvin Liew
p170
sS'616283047'
p171
VZheng Yi
p172
saa(lp173
S'10152664792463160'
p174
aS'1420205015'
p175
a(dp176
S'531868159'
p177
VMelissa Chan
p178
sS'601910818'
p179
VLee Chu Yong Mark
p180
sS'832975103'
p181
VAlvin Liew
p182
sS'616283047'
p183
VZheng Yi
p184
saa(lp185
S'10152664792193160'
p186
aS'1420205014'
p187
a(dp188
S'531868159'
p189
VMelissa Chan
p190
sS'601910818'
p191
VLee Chu Yong Mark
p192
sS'832975103'
p193
VAlvin Liew
p194
sS'616283047'
p195
VZheng Yi
p196
saa(lp197
S'10152646326648160'
p198
aS'1419975501'
p199
a(dp200
S'601910818'
p201
VLee Chu Yong Mark
p202
sS'832975103'
p203
VAlvin Liew
p204
sS'616283047'
p205
VZheng Yi
p206
saa(lp207
S'10152637283018160'
p208
aS'1419689436'
p209
a(dp210
S'531868159'
p211
VMelissa Chan
p212
sS'832975103'
p213
VAlvin Liew
p214
sS'601910818'
p215
VLee Chu Yong Mark
p216
sS'616283047'
p217
VZheng Yi
p218
saa(lp219
S'10152637279638160'
p220
aS'1419689325'
p221
a(dp222
S'531868159'
p223
VMelissa Chan
p224
sS'832975103'
p225
VAlvin Liew
p226
sS'601910818'
p227
VLee Chu Yong Mark
p228
sS'616283047'
p229
VZheng Yi
p230
saa(lp231
S'10152630814008160'
p232
aS'1419456297'
p233
a(dp234
S'531868159'
p235
VMelissa Chan
p236
sS'601910818'
p237
VLee Chu Yong Mark
p238
sS'832975103'
p239
VAlvin Liew
p240
sS'616283047'
p241
VZheng Yi
p242
saa(lp243
S'10152628277838160'
p244
aS'1419352007'
p245
a(dp246
S'531868159'
p247
VMelissa Chan
p248
sS'601910818'
p249
VLee Chu Yong Mark
p250
sS'832975103'
p251
VAlvin Liew
p252
sS'616283047'
p253
VZheng Yi
p254
saa(lp255
S'10152623977618160'
p256
aS'1419189960'
p257
a(dp258
S'531868159'
p259
VMelissa Chan
p260
sS'832975103'
p261
VAlvin Liew
p262
sS'601910818'
p263
VLee Chu Yong Mark
p264
sS'616283047'
p265
VZheng Yi
p266
saa(lp267
S'918187591526261'
p268
aS'1418589554'
p269
a(dp270
S'601910818'
p271
VLee Chu Yong Mark
p272
sS'100000050865573'
p273
VAdeline Loo
p274
sS'100000397025614'
p275
VKat Rina
p276
saa(lp277
S'918187578192929'
p278
aS'1418589554'
p279
a(dp280
S'601910818'
p281
VLee Chu Yong Mark
p282
sS'100000050865573'
p283
VAdeline Loo
p284
sS'100000397025614'
p285
VKat Rina
p286
saa(lp287
S'10152741220539823'
p288
aS'1418083224'
p289
a(dp290
S'100000956056616'
p291
VWong Siow Pin
p292
sS'598209810'
p293
VTravis Chia
p294
sS'600850050'
p295
VJerome Tan
p296
sS'686691025'
p297
VPaxton Chia Wei Xuan
p298
sS'754446316'
p299
VIvan Tee
p300
sS'548717576'
p301
VEng Zi Guang
p302
sS'100003182806731'
p303
VMartin Chan
p304
sS'601910818'
p305
VLee Chu Yong Mark
p306
sS'533759822'
p307
VTimothy Issac Low
p308
saa(lp309
S'10152741220534823'
p310
aS'1418083224'
p311
a(dp312
S'100000956056616'
p313
VWong Siow Pin
p314
sS'598209810'
p315
VTravis Chia
p316
sS'600850050'
p317
VJerome Tan
p318
sS'686691025'
p319
VPaxton Chia Wei Xuan
p320
sS'754446316'
p321
VIvan Tee
p322
sS'548717576'
p323
VEng Zi Guang
p324
sS'100003182806731'
p325
VMartin Chan
p326
sS'601910818'
p327
VLee Chu Yong Mark
p328
sS'533759822'
p329
VTimothy Issac Low
p330
saa(lp331
S'10203510334903154'
p332
aS'1418044222'
p333
a(dp334
S'601910818'
p335
VLee Chu Yong Mark
p336
sS'1390907511'
p337
VWen Wen Low
p338
sS'685609876'
p339
VTeresa Purnomo
p340
sS'536589913'
p341
VErnest Huang Zhixian
p342
sS'1357473831'
p343
VWan Ting
p344
sS'100000170816858'
p345
VLim Shi Teng
p346
sS'100000135040004'
p347
VYui Sasaki
p348
saa(lp349
S'10152615551313191'
p350
aS'1417886400'
p351
a(dp352
S'601910818'
p353
VLee Chu Yong Mark
p354
sS'536589913'
p355
VErnest Huang Zhixian
p356
saa(lp357
S'10154915910585051'
p358
aS'1417896283'
p359
a(dp360
S'787140095'
p361
VDenise Eng
p362
sS'601910818'
p363
VLee Chu Yong Mark
p364
sS'754446316'
p365
VIvan Tee
p366
sS'600850050'
p367
VJerome Tan
p368
sS'533348190'
p369
VChan Bingjie
p370
saa(lp371
S'910854648926222'
p372
aS'1417359275'
p373
a(dp374
S'601910818'
p375
VLee Chu Yong Mark
p376
sS'100000050865573'
p377
VAdeline Loo
p378
sS'533759822'
p379
VTimothy Issac Low
p380
saa(lp381
S'10205276390451297'
p382
aS'1417037122'
p383
a(dp384
S'100003406882948'
p385
VErica Goh
p386
sS'1315745572'
p387
VJohannes Tiong
p388
sS'100001856322915'
p389
VChew Hou Ng
p390
sS'100000170816858'
p391
VLim Shi Teng
p392
sS'1652833929'
p393
VJohnathan Mei
p394
sS'100000135040004'
p395
VYui Sasaki
p396
sS'522283005'
p397
VCollin Wan
p398
sS'606773550'
p399
VLee Wan Ting
p400
sS'100000265713602'
p401
VKuan Tzuo Weiit
p402
sS'1290151602'
p403
VWee Kee Tiew
p404
sS'685609876'
p405
VTeresa Purnomo
p406
sS'536589913'
p407
VErnest Huang Zhixian
p408
sS'601910818'
p409
VLee Chu Yong Mark
p410
sS'100005871673805'
p411
VBrianna Chang
p412
sS'1317248540'
p413
VChoy Chuok Ying
p414
sS'1390907511'
p415
VWen Wen Low
p416
sS'1357473831'
p417
VWan Ting
p418
sS'1293233390'
p419
VJeremy Tan
p420
sS'709740422'
p421
VJannie Khoo
p422
sS'1032490691'
p423
VJason Tingalingading
p424
sS'100000204543452'
p425
VJoshua Moh
p426
sS'687643301'
p427
VCarolyn Seow
p428
sS'100000013757021'
p429
VQian Grace
p430
sS'1427750645'
p431
VZhong Yao
p432
sS'100000105633006'
p433
VZheng Wei
p434
sS'100001064705688'
p435
VChong Sue Yi
p436
saa(lp437
S'986800988001060'
p438
aS'1416686776'
p439
a(dp440
S'522283005'
p441
VCollin Wan
p442
sS'1390907511'
p443
VWen Wen Low
p444
sS'685609876'
p445
VTeresa Purnomo
p446
sS'536589913'
p447
VErnest Huang Zhixian
p448
sS'1357473831'
p449
VWan Ting
p450
sS'1652833929'
p451
VJohnathan Mei
p452
sS'601910818'
p453
VLee Chu Yong Mark
p454
saa(lp455
S'904045532940467'
p456
aS'1416266771'
p457
a(dp458
S'787140095'
p459
VDenise Eng
p460
sS'601910818'
p461
VLee Chu Yong Mark
p462
sS'100000050865573'
p463
VAdeline Loo
p464
sS'533759822'
p465
VTimothy Issac Low
p466
saa(lp467
S'904045516273802'
p468
aS'1416266771'
p469
a(dp470
S'787140095'
p471
VDenise Eng
p472
sS'601910818'
p473
VLee Chu Yong Mark
p474
sS'100000050865573'
p475
VAdeline Loo
p476
sS'533759822'
p477
VTimothy Issac Low
p478
saa(lp479
S'10152931446459124'
p480
aS'1415998099'
p481
a(dp482
S'652199123'
p483
VSalome Hui
p484
sS'100001417791201'
p485
VDaniele Incerti
p486
sS'100000078355808'
p487
VEdric Ramirez-Valdez
p488
sS'685609876'
p489
VTeresa Purnomo
p490
sS'536589913'
p491
VErnest Huang Zhixian
p492
sS'1357473831'
p493
VWan Ting
p494
sS'1652833929'
p495
VJohnathan Mei
p496
sS'601910818'
p497
VLee Chu Yong Mark
p498
saa(lp499
S'10205348348493459'
p500
aS'1415448288'
p501
a(dp502
S'1357473831'
p503
VWan Ting
p504
sS'1652833929'
p505
VJohnathan Mei
p506
sS'601910818'
p507
VLee Chu Yong Mark
p508
sS'522283005'
p509
VCollin Wan
p510
sS'536589913'
p511
VErnest Huang Zhixian
p512
saa(lp513
S'10152589233455819'
p514
aS'1414886664'
p515
a(dp516
S'100000956056616'
p517
VWong Siow Pin
p518
sS'1169326278'
p519
VRahul Sibal
p520
sS'756027892'
p521
VDarren Tan
p522
sS'714876677'
p523
VTan Wei Xiang
p524
sS'685609876'
p525
VTeresa Purnomo
p526
sS'565054704'
p527
VLincoln Ang
p528
sS'1580101802'
p529
VLo Jun Hong
p530
sS'100003118006891'
p531
VRachel Tan Xin En
p532
sS'601910818'
p533
VLee Chu Yong Mark
p534
saa(lp535
S'4797665677216'
p536
aS'1414167389'
p537
a(dp538
S'686691025'
p539
VPaxton Chia Wei Xuan
p540
sS'601910818'
p541
VLee Chu Yong Mark
p542
sS'533759822'
p543
VTimothy Issac Low
p544
saa(lp545
S'890244580987229'
p546
aS'1414083264'
p547
a(dp548
S'601910818'
p549
VLee Chu Yong Mark
p550
sS'1763221972'
p551
VRajesh Kumar Rai
p552
sS'100000050865573'
p553
VAdeline Loo
p554
sS'598209810'
p555
VTravis Chia
p556
sS'100003182806731'
p557
VMartin Chan
p558
saa(lp559
S'4794395315459'
p560
aS'1414062592'
p561
a(dp562
S'533759822'
p563
VTimothy Issac Low
p564
sS'598209810'
p565
VTravis Chia
p566
sS'100000050865573'
p567
VAdeline Loo
p568
sS'600850050'
p569
VJerome Tan
p570
sS'642459102'
p571
VChoo Jia Guang
p572
sS'100003182806731'
p573
VMartin Chan
p574
sS'1763221972'
p575
VRajesh Kumar Rai
p576
sS'601910818'
p577
VLee Chu Yong Mark
p578
sS'548717576'
p579
VEng Zi Guang
p580
saa(lp581
S'886443854700635'
p582
aS'1413503531'
p583
a(dp584
S'601910818'
p585
VLee Chu Yong Mark
p586
sS'100000050865573'
p587
VAdeline Loo
p588
saa(lp589
S'886198108058543'
p590
aS'1413462159'
p591
a(dp592
S'601910818'
p593
VLee Chu Yong Mark
p594
sS'100000050865573'
p595
VAdeline Loo
p596
sS'533759822'
p597
VTimothy Issac Low
p598
saa(lp599
S'10154732595880051'
p600
aS'1413321916'
p601
a(dp602
S'787140095'
p603
VDenise Eng
p604
sS'601910818'
p605
VLee Chu Yong Mark
p606
sS'100000050865573'
p607
VAdeline Loo
p608
sS'600850050'
p609
VJerome Tan
p610
sS'578359736'
p611
VCheah Pei Zhen
p612
saa(lp613
S'10154732595245051'
p614
aS'1413321916'
p615
a(dp616
S'598209810'
p617
VTravis Chia
p618
sS'1095244393'
p619
VChua Zhi Ming Benjamin
p620
sS'100000050865573'
p621
VAdeline Loo
p622
sS'600850050'
p623
VJerome Tan
p624
sS'686691025'
p625
VPaxton Chia Wei Xuan
p626
sS'601910818'
p627
VLee Chu Yong Mark
p628
saa(lp629
S'10154732594895051'
p630
aS'1413321915'
p631
a(dp632
S'100000956056616'
p633
VWong Siow Pin
p634
sS'598209810'
p635
VTravis Chia
p636
sS'1095244393'
p637
VChua Zhi Ming Benjamin
p638
sS'533759822'
p639
VTimothy Issac Low
p640
sS'100000050865573'
p641
VAdeline Loo
p642
sS'577907916'
p643
VSyakir Kamal
p644
sS'600850050'
p645
VJerome Tan
p646
sS'1602644235'
p647
VJing Yi Chan
p648
sS'686691025'
p649
VPaxton Chia Wei Xuan
p650
sS'642459102'
p651
VChoo Jia Guang
p652
sS'601910818'
p653
VLee Chu Yong Mark
p654
sS'548717576'
p655
VEng Zi Guang
p656
saa(lp657
S'10205148221490409'
p658
aS'1413142321'
p659
a(dp660
S'652199123'
p661
VSalome Hui
p662
sS'522283005'
p663
VCollin Wan
p664
sS'685609876'
p665
VTeresa Purnomo
p666
sS'536589913'
p667
VErnest Huang Zhixian
p668
sS'100000135040004'
p669
VYui Sasaki
p670
sS'1652833929'
p671
VJohnathan Mei
p672
sS'601910818'
p673
VLee Chu Yong Mark
p674
saa(lp675
S'10152542993732917'
p676
aS'1413103174'
p677
a(dp678
S'100000956056616'
p679
VWong Siow Pin
p680
sS'598209810'
p681
VTravis Chia
p682
sS'578359736'
p683
VCheah Pei Zhen
p684
sS'100000050865573'
p685
VAdeline Loo
p686
sS'577907916'
p687
VSyakir Kamal
p688
sS'600850050'
p689
VJerome Tan
p690
sS'787140095'
p691
VDenise Eng
p692
sS'1602644235'
p693
VJing Yi Chan
p694
sS'686691025'
p695
VPaxton Chia Wei Xuan
p696
sS'514857315'
p697
VQamarul Arifin
p698
sS'642459102'
p699
VChoo Jia Guang
p700
sS'548717576'
p701
VEng Zi Guang
p702
sS'100003182806731'
p703
VMartin Chan
p704
sS'601910818'
p705
VLee Chu Yong Mark
p706
sS'533759822'
p707
VTimothy Issac Low
p708
saa(lp709
S'10152542993637917'
p710
aS'1413103170'
p711
a(dp712
S'533759822'
p713
VTimothy Issac Low
p714
sS'577907916'
p715
VSyakir Kamal
p716
sS'1602644235'
p717
VJing Yi Chan
p718
sS'642459102'
p719
VChoo Jia Guang
p720
sS'601910818'
p721
VLee Chu Yong Mark
p722
sS'598209810'
p723
VTravis Chia
p724
saa(lp725
S'10152542993947917'
p726
aS'1413103178'
p727
a(dp728
S'100000956056616'
p729
VWong Siow Pin
p730
sS'598209810'
p731
VTravis Chia
p732
sS'578359736'
p733
VCheah Pei Zhen
p734
sS'100000050865573'
p735
VAdeline Loo
p736
sS'577907916'
p737
VSyakir Kamal
p738
sS'600850050'
p739
VJerome Tan
p740
sS'787140095'
p741
VDenise Eng
p742
sS'1602644235'
p743
VJing Yi Chan
p744
sS'686691025'
p745
VPaxton Chia Wei Xuan
p746
sS'514857315'
p747
VQamarul Arifin
p748
sS'642459102'
p749
VChoo Jia Guang
p750
sS'548717576'
p751
VEng Zi Guang
p752
sS'100003182806731'
p753
VMartin Chan
p754
sS'601910818'
p755
VLee Chu Yong Mark
p756
sS'533759822'
p757
VTimothy Issac Low
p758
saa(lp759
S'10154715025205051'
p760
aS'1413037169'
p761
a(dp762
S'100000956056616'
p763
VWong Siow Pin
p764
sS'601910818'
p765
VLee Chu Yong Mark
p766
sS'598209810'
p767
VTravis Chia
p768
sS'578359736'
p769
VCheah Pei Zhen
p770
sS'100000050865573'
p771
VAdeline Loo
p772
sS'577907916'
p773
VSyakir Kamal
p774
sS'600850050'
p775
VJerome Tan
p776
sS'787140095'
p777
VDenise Eng
p778
sS'1602644235'
p779
VJing Yi Chan
p780
sS'686691025'
p781
VPaxton Chia Wei Xuan
p782
sS'514857315'
p783
VQamarul Arifin
p784
sS'642459102'
p785
VChoo Jia Guang
p786
sS'100003508117860'
p787
VShayna Kam
p788
sS'100003182806731'
p789
VMartin Chan
p790
sS'1763221972'
p791
VRajesh Kumar Rai
p792
sS'548717576'
p793
VEng Zi Guang
p794
sS'100004018856838'
p795
VAng Jia Ming
p796
sS'1095244393'
p797
VChua Zhi Ming Benjamin
p798
sS'533759822'
p799
VTimothy Issac Low
p800
saa(lp801
S'10154629569300051'
p802
aS'1411232358'
p803
a(dp804
S'100000956056616'
p805
VWong Siow Pin
p806
sS'100000050865573'
p807
VAdeline Loo
p808
sS'598209810'
p809
VTravis Chia
p810
sS'578359736'
p811
VCheah Pei Zhen
p812
sS'804202275'
p813
VSzewei Foo
p814
sS'600850050'
p815
VJerome Tan
p816
sS'686691025'
p817
VPaxton Chia Wei Xuan
p818
sS'565018647'
p819
VKon Hunn Leung
p820
sS'642459102'
p821
VChoo Jia Guang
p822
sS'602140710'
p823
VGoh Yu Chen
p824
sS'601910818'
p825
VLee Chu Yong Mark
p826
sS'647113050'
p827
VJia Le Lim
p828
sS'579544904'
p829
VAng Jia Xi
p830
sS'533759822'
p831
VTimothy Issac Low
p832
saa(lp833
S'10152564577029823'
p834
aS'1410877280'
p835
a(dp836
S'578588413'
p837
VTan Hong Wei
p838
sS'533759822'
p839
VTimothy Issac Low
p840
sS'598209810'
p841
VTravis Chia
p842
sS'100000050865573'
p843
VAdeline Loo
p844
sS'577907916'
p845
VSyakir Kamal
p846
sS'600850050'
p847
VJerome Tan
p848
sS'100000956056616'
p849
VWong Siow Pin
p850
sS'1602644235'
p851
VJing Yi Chan
p852
sS'642459102'
p853
VChoo Jia Guang
p854
sS'100003508117860'
p855
VShayna Kam
p856
sS'100003182806731'
p857
VMartin Chan
p858
sS'601910818'
p859
VLee Chu Yong Mark
p860
sS'100004018856838'
p861
VAng Jia Ming
p862
sS'548717576'
p863
VEng Zi Guang
p864
saa(lp865
S'10152461097870819'
p866
aS'1409413172'
p867
a(dp868
S'736201622'
p869
VDarren Lum
p870
sS'548517812'
p871
VOng MurFei
p872
sS'745548182'
p873
VSzeto Kah Keong
p874
sS'616283047'
p875
VZheng Yi
p876
sS'646142505'
p877
VShawn Ng
p878
sS'669654770'
p879
VFan Yu Zhen
p880
sS'601910818'
p881
VLee Chu Yong Mark
p882
sS'662111446'
p883
VLim Chern Yuen
p884
saa(lp885
S'4448902636313'
p886
aS'1408372433'
p887
a(dp888
S'533759822'
p889
VTimothy Issac Low
p890
sS'100000050865573'
p891
VAdeline Loo
p892
sS'577907916'
p893
VSyakir Kamal
p894
sS'787140095'
p895
VDenise Eng
p896
sS'100003508117860'
p897
VShayna Kam
p898
sS'601910818'
p899
VLee Chu Yong Mark
p900
saa(lp901
S'4448767152926'
p902
aS'1408371000'
p903
a(dp904
S'601910818'
p905
VLee Chu Yong Mark
p906
saa(lp907
S'4448800633763'
p908
aS'1408371437'
p909
a(dp910
S'533759822'
p911
VTimothy Issac Low
p912
sS'597103934'
p913
VChew Zhi Han Gary
p914
sS'804202275'
p915
VSzewei Foo
p916
sS'1602644235'
p917
VJing Yi Chan
p918
sS'686691025'
p919
VPaxton Chia Wei Xuan
p920
sS'601910818'
p921
VLee Chu Yong Mark
p922
sS'548717576'
p923
VEng Zi Guang
p924
saa(lp925
S'4448904116350'
p926
aS'1408372449'
p927
a(dp928
S'597103934'
p929
VChew Zhi Han Gary
p930
sS'578359736'
p931
VCheah Pei Zhen
p932
sS'100000050865573'
p933
VAdeline Loo
p934
sS'577907916'
p935
VSyakir Kamal
p936
sS'600850050'
p937
VJerome Tan
p938
sS'787140095'
p939
VDenise Eng
p940
sS'1602644235'
p941
VJing Yi Chan
p942
sS'100003182806731'
p943
VMartin Chan
p944
sS'601910818'
p945
VLee Chu Yong Mark
p946
sS'100004018856838'
p947
VAng Jia Ming
p948
saa(lp949
S'4448800393757'
p950
aS'1408371432'
p951
a(dp952
S'100000956056616'
p953
VWong Siow Pin
p954
sS'533759822'
p955
VTimothy Issac Low
p956
sS'514857315'
p957
VQamarul Arifin
p958
sS'787140095'
p959
VDenise Eng
p960
sS'686691025'
p961
VPaxton Chia Wei Xuan
p962
sS'601910818'
p963
VLee Chu Yong Mark
p964
sS'100004018856838'
p965
VAng Jia Ming
p966
saa(lp967
S'4448799633738'
p968
aS'1408371419'
p969
a(dp970
S'100000956056616'
p971
VWong Siow Pin
p972
sS'533759822'
p973
VTimothy Issac Low
p974
sS'597103934'
p975
VChew Zhi Han Gary
p976
sS'598209810'
p977
VTravis Chia
p978
sS'100000050865573'
p979
VAdeline Loo
p980
sS'577907916'
p981
VSyakir Kamal
p982
sS'578588413'
p983
VTan Hong Wei
p984
sS'787140095'
p985
VDenise Eng
p986
sS'686691025'
p987
VPaxton Chia Wei Xuan
p988
sS'514857315'
p989
VQamarul Arifin
p990
sS'1095244393'
p991
VChua Zhi Ming Benjamin
p992
sS'1763221972'
p993
VRajesh Kumar Rai
p994
sS'601910818'
p995
VLee Chu Yong Mark
p996
sS'100004018856838'
p997
VAng Jia Ming
p998
sS'548717576'
p999
VEng Zi Guang
p1000
saa(lp1001
S'4448797473684'
p1002
aS'1408371387'
p1003
a(dp1004
S'601910818'
p1005
VLee Chu Yong Mark
p1006
sS'600850050'
p1007
VJerome Tan
p1008
saa(lp1009
S'4448790033498'
p1010
aS'1408371290'
p1011
a(dp1012
S'601910818'
p1013
VLee Chu Yong Mark
p1014
sS'804202275'
p1015
VSzewei Foo
p1016
sS'533759822'
p1017
VTimothy Issac Low
p1018
saa(lp1019
S'4448786193402'
p1020
aS'1408371241'
p1021
a(dp1022
S'100003182806731'
p1023
VMartin Chan
p1024
sS'601910818'
p1025
VLee Chu Yong Mark
p1026
sS'577907916'
p1027
VSyakir Kamal
p1028
sS'533759822'
p1029
VTimothy Issac Low
p1030
sS'100004018856838'
p1031
VAng Jia Ming
p1032
saa(lp1033
S'4448783433333'
p1034
aS'1408371205'
p1035
a(dp1036
S'100000956056616'
p1037
VWong Siow Pin
p1038
sS'598209810'
p1039
VTravis Chia
p1040
sS'533759822'
p1041
VTimothy Issac Low
p1042
sS'100000050865573'
p1043
VAdeline Loo
p1044
sS'577907916'
p1045
VSyakir Kamal
p1046
sS'600850050'
p1047
VJerome Tan
p1048
sS'686691025'
p1049
VPaxton Chia Wei Xuan
p1050
sS'514857315'
p1051
VQamarul Arifin
p1052
sS'548717576'
p1053
VEng Zi Guang
p1054
sS'1763221972'
p1055
VRajesh Kumar Rai
p1056
sS'601910818'
p1057
VLee Chu Yong Mark
p1058
sS'100004018856838'
p1059
VAng Jia Ming
p1060
saa(lp1061
S'4448804033848'
p1062
aS'1408371477'
p1063
a(dp1064
S'100000956056616'
p1065
VWong Siow Pin
p1066
sS'598209810'
p1067
VTravis Chia
p1068
sS'1095244393'
p1069
VChua Zhi Ming Benjamin
p1070
sS'533759822'
p1071
VTimothy Issac Low
p1072
sS'100000050865573'
p1073
VAdeline Loo
p1074
sS'597103934'
p1075
VChew Zhi Han Gary
p1076
sS'577907916'
p1077
VSyakir Kamal
p1078
sS'787140095'
p1079
VDenise Eng
p1080
sS'686691025'
p1081
VPaxton Chia Wei Xuan
p1082
sS'548717576'
p1083
VEng Zi Guang
p1084
sS'601910818'
p1085
VLee Chu Yong Mark
p1086
sS'100004018856838'
p1087
VAng Jia Ming
p1088
saa(lp1089
S'4448802953821'
p1090
aS'1408371472'
p1091
a(dp1092
S'100000956056616'
p1093
VWong Siow Pin
p1094
sS'533759822'
p1095
VTimothy Issac Low
p1096
sS'598209810'
p1097
VTravis Chia
p1098
sS'100000050865573'
p1099
VAdeline Loo
p1100
sS'787140095'
p1101
VDenise Eng
p1102
sS'686691025'
p1103
VPaxton Chia Wei Xuan
p1104
sS'642459102'
p1105
VChoo Jia Guang
p1106
sS'100003182806731'
p1107
VMartin Chan
p1108
sS'1763221972'
p1109
VRajesh Kumar Rai
p1110
sS'601910818'
p1111
VLee Chu Yong Mark
p1112
sS'100004018856838'
p1113
VAng Jia Ming
p1114
saa(lp1115
S'4448801193777'
p1116
aS'1408371441'
p1117
a(dp1118
S'100000956056616'
p1119
VWong Siow Pin
p1120
sS'598209810'
p1121
VTravis Chia
p1122
sS'1095244393'
p1123
VChua Zhi Ming Benjamin
p1124
sS'533759822'
p1125
VTimothy Issac Low
p1126
sS'100000050865573'
p1127
VAdeline Loo
p1128
sS'577907916'
p1129
VSyakir Kamal
p1130
sS'578588413'
p1131
VTan Hong Wei
p1132
sS'787140095'
p1133
VDenise Eng
p1134
sS'1763221972'
p1135
VRajesh Kumar Rai
p1136
sS'601910818'
p1137
VLee Chu Yong Mark
p1138
sS'100004018856838'
p1139
VAng Jia Ming
p1140
saa(lp1141
S'4448900156251'
p1142
aS'1408372405'
p1143
a(dp1144
S'601910818'
p1145
VLee Chu Yong Mark
p1146
saa(lp1147
S'4448888195952'
p1148
aS'1408372285'
p1149
a(dp1150
S'601910818'
p1151
VLee Chu Yong Mark
p1152
sS'642459102'
p1153
VChoo Jia Guang
p1154
saa(lp1155
S'4448926316905'
p1156
aS'1408372695'
p1157
a(dp1158
S'601910818'
p1159
VLee Chu Yong Mark
p1160
sS'578359736'
p1161
VCheah Pei Zhen
p1162
saa(lp1163
S'4448919556736'
p1164
aS'1408372607'
p1165
a(dp1166
S'601910818'
p1167
VLee Chu Yong Mark
p1168
sS'533759822'
p1169
VTimothy Issac Low
p1170
sS'600850050'
p1171
VJerome Tan
p1172
saa(lp1173
S'4448918276704'
p1174
aS'1408372597'
p1175
a(dp1176
S'601910818'
p1177
VLee Chu Yong Mark
p1178
sS'533759822'
p1179
VTimothy Issac Low
p1180
sS'100000050865573'
p1181
VAdeline Loo
p1182
sS'600850050'
p1183
VJerome Tan
p1184
saa(lp1185
S'4448917716690'
p1186
aS'1408372592'
p1187
a(dp1188
S'601910818'
p1189
VLee Chu Yong Mark
p1190
sS'533759822'
p1191
VTimothy Issac Low
p1192
sS'100000050865573'
p1193
VAdeline Loo
p1194
sS'600850050'
p1195
VJerome Tan
p1196
saa(lp1197
S'4448917276679'
p1198
aS'1408372588'
p1199
a(dp1200
S'601910818'
p1201
VLee Chu Yong Mark
p1202
sS'533759822'
p1203
VTimothy Issac Low
p1204
saa(lp1205
S'4448843034823'
p1206
aS'1408371907'
p1207
a(dp1208
S'607596842'
p1209
VTan Wei Jie
p1210
sS'578588413'
p1211
VTan Hong Wei
p1212
sS'100000050865573'
p1213
VAdeline Loo
p1214
sS'533759822'
p1215
VTimothy Issac Low
p1216
sS'597103934'
p1217
VChew Zhi Han Gary
p1218
sS'578359736'
p1219
VCheah Pei Zhen
p1220
sS'804202275'
p1221
VSzewei Foo
p1222
sS'100000956056616'
p1223
VWong Siow Pin
p1224
sS'686691025'
p1225
VPaxton Chia Wei Xuan
p1226
sS'1701872031'
p1227
VHazel Wang
p1228
sS'600850050'
p1229
VJerome Tan
p1230
sS'787140095'
p1231
VDenise Eng
p1232
sS'1602644235'
p1233
VJing Yi Chan
p1234
sS'514857315'
p1235
VQamarul Arifin
p1236
sS'601910818'
p1237
VLee Chu Yong Mark
p1238
sS'642459102'
p1239
VChoo Jia Guang
p1240
sS'548717576'
p1241
VEng Zi Guang
p1242
sS'1763221972'
p1243
VRajesh Kumar Rai
p1244
sS'100004018856838'
p1245
VAng Jia Ming
p1246
sS'577907916'
p1247
VSyakir Kamal
p1248
sS'598209810'
p1249
VTravis Chia
p1250
saa(lp1251
S'4448810674014'
p1252
aS'1408348980'
p1253
a(dp1254
S'607596842'
p1255
VTan Wei Jie
p1256
sS'804202275'
p1257
VSzewei Foo
p1258
sS'1602644235'
p1259
VJing Yi Chan
p1260
sS'642459102'
p1261
VChoo Jia Guang
p1262
sS'548717576'
p1263
VEng Zi Guang
p1264
sS'100003182806731'
p1265
VMartin Chan
p1266
sS'601910818'
p1267
VLee Chu Yong Mark
p1268
sS'100004018856838'
p1269
VAng Jia Ming
p1270
saa(lp1271
S'4448809593987'
p1272
aS'1408371574'
p1273
a(dp1274
S'533759822'
p1275
VTimothy Issac Low
p1276
sS'1095244393'
p1277
VChua Zhi Ming Benjamin
p1278
sS'578359736'
p1279
VCheah Pei Zhen
p1280
sS'100000050865573'
p1281
VAdeline Loo
p1282
sS'601910818'
p1283
VLee Chu Yong Mark
p1284
sS'598209810'
p1285
VTravis Chia
p1286
saa(lp1287
S'4448787633438'
p1288
aS'1408371251'
p1289
a(dp1290
S'100000956056616'
p1291
VWong Siow Pin
p1292
sS'601910818'
p1293
VLee Chu Yong Mark
p1294
sS'598209810'
p1295
VTravis Chia
p1296
sS'577907916'
p1297
VSyakir Kamal
p1298
sS'642459102'
p1299
VChoo Jia Guang
p1300
sS'548717576'
p1301
VEng Zi Guang
p1302
sS'1763221972'
p1303
VRajesh Kumar Rai
p1304
sS'100004018856838'
p1305
VAng Jia Ming
p1306
sS'552565257'
p1307
VGao Yulin
p1308
sS'533759822'
p1309
VTimothy Issac Low
p1310
saa(lp1311
S'4448786953421'
p1312
aS'1408371245'
p1313
a(dp1314
S'601910818'
p1315
VLee Chu Yong Mark
p1316
sS'598209810'
p1317
VTravis Chia
p1318
sS'100004018856838'
p1319
VAng Jia Ming
p1320
saa(lp1321
S'4448785233378'
p1322
aS'1408371229'
p1323
a(dp1324
S'514857315'
p1325
VQamarul Arifin
p1326
sS'601910818'
p1327
VLee Chu Yong Mark
p1328
sS'642459102'
p1329
VChoo Jia Guang
p1330
sS'533759822'
p1331
VTimothy Issac Low
p1332
sS'552565257'
p1333
VGao Yulin
p1334
saa(lp1335
S'4448782113300'
p1336
aS'1408371189'
p1337
a(dp1338
S'601910818'
p1339
VLee Chu Yong Mark
p1340
sS'577907916'
p1341
VSyakir Kamal
p1342
sS'1095244393'
p1343
VChua Zhi Ming Benjamin
p1344
sS'578359736'
p1345
VCheah Pei Zhen
p1346
saa(lp1347
S'4448781433283'
p1348
aS'1408371181'
p1349
a(dp1350
S'686691025'
p1351
VPaxton Chia Wei Xuan
p1352
sS'601910818'
p1353
VLee Chu Yong Mark
p1354
sS'577907916'
p1355
VSyakir Kamal
p1356
sS'598209810'
p1357
VTravis Chia
p1358
saa(lp1359
S'4448780153251'
p1360
aS'1408371160'
p1361
a(dp1362
S'578359736'
p1363
VCheah Pei Zhen
p1364
sS'1095244393'
p1365
VChua Zhi Ming Benjamin
p1366
sS'533759822'
p1367
VTimothy Issac Low
p1368
sS'577907916'
p1369
VSyakir Kamal
p1370
sS'686691025'
p1371
VPaxton Chia Wei Xuan
p1372
sS'1763221972'
p1373
VRajesh Kumar Rai
p1374
sS'601910818'
p1375
VLee Chu Yong Mark
p1376
sS'552565257'
p1377
VGao Yulin
p1378
sS'598209810'
p1379
VTravis Chia
p1380
saa(lp1381
S'4448779513235'
p1382
aS'1408371152'
p1383
a(dp1384
S'100000956056616'
p1385
VWong Siow Pin
p1386
sS'578359736'
p1387
VCheah Pei Zhen
p1388
sS'1095244393'
p1389
VChua Zhi Ming Benjamin
p1390
sS'100000050865573'
p1391
VAdeline Loo
p1392
sS'577907916'
p1393
VSyakir Kamal
p1394
sS'578588413'
p1395
VTan Hong Wei
p1396
sS'600850050'
p1397
VJerome Tan
p1398
sS'686691025'
p1399
VPaxton Chia Wei Xuan
p1400
sS'100003182806731'
p1401
VMartin Chan
p1402
sS'1763221972'
p1403
VRajesh Kumar Rai
p1404
sS'601910818'
p1405
VLee Chu Yong Mark
p1406
sS'533759822'
p1407
VTimothy Issac Low
p1408
saa(lp1409
S'4448778713215'
p1410
aS'1408371147'
p1411
a(dp1412
S'533759822'
p1413
VTimothy Issac Low
p1414
sS'577907916'
p1415
VSyakir Kamal
p1416
sS'1763221972'
p1417
VRajesh Kumar Rai
p1418
sS'601910818'
p1419
VLee Chu Yong Mark
p1420
sS'552565257'
p1421
VGao Yulin
p1422
sS'100004018856838'
p1423
VAng Jia Ming
p1424
saa(lp1425
S'4448775633138'
p1426
aS'1408371110'
p1427
a(dp1428
S'533759822'
p1429
VTimothy Issac Low
p1430
sS'578359736'
p1431
VCheah Pei Zhen
p1432
sS'577907916'
p1433
VSyakir Kamal
p1434
sS'600850050'
p1435
VJerome Tan
p1436
sS'601910818'
p1437
VLee Chu Yong Mark
p1438
sS'548717576'
p1439
VEng Zi Guang
p1440
saa(lp1441
S'4448774433108'
p1442
aS'1408371093'
p1443
a(dp1444
S'601910818'
p1445
VLee Chu Yong Mark
p1446
sS'100000956056616'
p1447
VWong Siow Pin
p1448
sS'514857315'
p1449
VQamarul Arifin
p1450
sS'577907916'
p1451
VSyakir Kamal
p1452
sS'533759822'
p1453
VTimothy Issac Low
p1454
saa(lp1455
S'4448753712590'
p1456
aS'1408370838'
p1457
a(dp1458
S'601910818'
p1459
VLee Chu Yong Mark
p1460
sS'578588413'
p1461
VTan Hong Wei
p1462
sS'100000050865573'
p1463
VAdeline Loo
p1464
sS'1763221972'
p1465
VRajesh Kumar Rai
p1466
sS'1095244393'
p1467
VChua Zhi Ming Benjamin
p1468
saa(lp1469
S'4448740992272'
p1470
aS'1408370699'
p1471
a(dp1472
S'601910818'
p1473
VLee Chu Yong Mark
p1474
sS'597879074'
p1475
VSheryl Lee
p1476
saa(lp1477
S'10154495671535051'
p1478
aS'1408277725'
p1479
a(dp1480
S'100000956056616'
p1481
VWong Siow Pin
p1482
sS'1602644235'
p1483
VJing Yi Chan
p1484
sS'100003508117860'
p1485
VShayna Kam
p1486
sS'533759822'
p1487
VTimothy Issac Low
p1488
sS'804202275'
p1489
VSzewei Foo
p1490
sS'686691025'
p1491
VPaxton Chia Wei Xuan
p1492
sS'514857315'
p1493
VQamarul Arifin
p1494
sS'601910818'
p1495
VLee Chu Yong Mark
p1496
sS'548717576'
p1497
VEng Zi Guang
p1498
sS'607596842'
p1499
VTan Wei Jie
p1500
sS'100000050865573'
p1501
VAdeline Loo
p1502
sS'1701872031'
p1503
VHazel Wang
p1504
sS'600850050'
p1505
VJerome Tan
p1506
sS'787140095'
p1507
VDenise Eng
p1508
sS'1763221972'
p1509
VRajesh Kumar Rai
p1510
sS'598209810'
p1511
VTravis Chia
p1512
sS'578588413'
p1513
VTan Hong Wei
p1514
sS'578359736'
p1515
VCheah Pei Zhen
p1516
sS'597103934'
p1517
VChew Zhi Han Gary
p1518
sS'577907916'
p1519
VSyakir Kamal
p1520
sS'642459102'
p1521
VChoo Jia Guang
p1522
sS'100004018856838'
p1523
VAng Jia Ming
p1524
saa(lp1525
S'10152315151333543'
p1526
aS'1408353011'
p1527
a(dp1528
S'620793178'
p1529
VLow Zuo Kai Nicholas
p1530
sS'765426739'
p1531
VMeri Tan
p1532
sS'1661407117'
p1533
VAndrew Baey
p1534
sS'597103934'
p1535
VChew Zhi Han Gary
p1536
sS'616511687'
p1537
VBen Yong
p1538
sS'533497091'
p1539
VJia Ying Goh
p1540
sS'533348190'
p1541
VChan Bingjie
p1542
sS'1444524256'
p1543
VNicholas Chia
p1544
sS'100003182806731'
p1545
VMartin Chan
p1546
sS'601910818'
p1547
VLee Chu Yong Mark
p1548
sS'843850400'
p1549
VWei Long
p1550
saa(lp1551
S'10204310880281922'
p1552
aS'1407640907'
p1553
a(dp1554
S'600967843'
p1555
VEdwin Liang
p1556
sS'1526516271'
p1557
VWong Yi Ren
p1558
sS'564348949'
p1559
VJonathan Tjioe
p1560
sS'1542153685'
p1561
VHelen Segara
p1562
sS'100000481243801'
p1563
VTeng Meow Kheng
p1564
sS'600281044'
p1565
VShuMing Tay
p1566
sS'1078533688'
p1567
VLee Kwan Ter
p1568
sS'724679667'
p1569
VCalwin Lim
p1570
sS'735119712'
p1571
VJoey Yeung
p1572
sS'1203267230'
p1573
VRoy Matthias Goh
p1574
sS'601910818'
p1575
VLee Chu Yong Mark
p1576
sS'585538203'
p1577
VEthan Aw
p1578
sS'594078037'
p1579
VSiHeng Yeo
p1580
saa(lp1581
S'10204310880241921'
p1582
aS'1407640906'
p1583
a(dp1584
S'600967843'
p1585
VEdwin Liang
p1586
sS'1526516271'
p1587
VWong Yi Ren
p1588
sS'564348949'
p1589
VJonathan Tjioe
p1590
sS'1542153685'
p1591
VHelen Segara
p1592
sS'100000481243801'
p1593
VTeng Meow Kheng
p1594
sS'600281044'
p1595
VShuMing Tay
p1596
sS'1078533688'
p1597
VLee Kwan Ter
p1598
sS'724679667'
p1599
VCalwin Lim
p1600
sS'735119712'
p1601
VJoey Yeung
p1602
sS'1203267230'
p1603
VRoy Matthias Goh
p1604
sS'601910818'
p1605
VLee Chu Yong Mark
p1606
sS'585538203'
p1607
VEthan Aw
p1608
sS'599561823'
p1609
VLouis Tan
p1610
sS'594078037'
p1611
VSiHeng Yeo
p1612
saa(lp1613
S'10204310784119518'
p1614
aS'1407639633'
p1615
a(dp1616
S'735119712'
p1617
VJoey Yeung
p1618
sS'1203267230'
p1619
VRoy Matthias Goh
p1620
sS'601910818'
p1621
VLee Chu Yong Mark
p1622
saa(lp1623
S'10204310736438326'
p1624
aS'1407639087'
p1625
a(dp1626
S'600967843'
p1627
VEdwin Liang
p1628
sS'1526516271'
p1629
VWong Yi Ren
p1630
sS'564348949'
p1631
VJonathan Tjioe
p1632
sS'1542153685'
p1633
VHelen Segara
p1634
sS'100000481243801'
p1635
VTeng Meow Kheng
p1636
sS'600281044'
p1637
VShuMing Tay
p1638
sS'1078533688'
p1639
VLee Kwan Ter
p1640
sS'724679667'
p1641
VCalwin Lim
p1642
sS'735119712'
p1643
VJoey Yeung
p1644
sS'1203267230'
p1645
VRoy Matthias Goh
p1646
sS'601910818'
p1647
VLee Chu Yong Mark
p1648
sS'585538203'
p1649
VEthan Aw
p1650
sS'594078037'
p1651
VSiHeng Yeo
p1652
saa(lp1653
S'10204310735718308'
p1654
aS'1407639084'
p1655
a(dp1656
S'600967843'
p1657
VEdwin Liang
p1658
sS'1526516271'
p1659
VWong Yi Ren
p1660
sS'564348949'
p1661
VJonathan Tjioe
p1662
sS'1542153685'
p1663
VHelen Segara
p1664
sS'100000481243801'
p1665
VTeng Meow Kheng
p1666
sS'600281044'
p1667
VShuMing Tay
p1668
sS'1078533688'
p1669
VLee Kwan Ter
p1670
sS'724679667'
p1671
VCalwin Lim
p1672
sS'735119712'
p1673
VJoey Yeung
p1674
sS'1203267230'
p1675
VRoy Matthias Goh
p1676
sS'601910818'
p1677
VLee Chu Yong Mark
p1678
sS'585538203'
p1679
VEthan Aw
p1680
sS'599561823'
p1681
VLouis Tan
p1682
sS'594078037'
p1683
VSiHeng Yeo
p1684
saa(lp1685
S'10204310735398300'
p1686
aS'1407639079'
p1687
a(dp1688
S'600967843'
p1689
VEdwin Liang
p1690
sS'1526516271'
p1691
VWong Yi Ren
p1692
sS'564348949'
p1693
VJonathan Tjioe
p1694
sS'1542153685'
p1695
VHelen Segara
p1696
sS'100000481243801'
p1697
VTeng Meow Kheng
p1698
sS'600281044'
p1699
VShuMing Tay
p1700
sS'1078533688'
p1701
VLee Kwan Ter
p1702
sS'724679667'
p1703
VCalwin Lim
p1704
sS'735119712'
p1705
VJoey Yeung
p1706
sS'1203267230'
p1707
VRoy Matthias Goh
p1708
sS'601910818'
p1709
VLee Chu Yong Mark
p1710
sS'585538203'
p1711
VEthan Aw
p1712
sS'599561823'
p1713
VLouis Tan
p1714
sS'594078037'
p1715
VSiHeng Yeo
p1716
saa(lp1717
S'10204310732318223'
p1718
aS'1407639040'
p1719
a(dp1720
S'600967843'
p1721
VEdwin Liang
p1722
sS'543022349'
p1723
VAvan Kwek
p1724
sS'1526516271'
p1725
VWong Yi Ren
p1726
sS'564348949'
p1727
VJonathan Tjioe
p1728
sS'1542153685'
p1729
VHelen Segara
p1730
sS'100000481243801'
p1731
VTeng Meow Kheng
p1732
sS'600281044'
p1733
VShuMing Tay
p1734
sS'1078533688'
p1735
VLee Kwan Ter
p1736
sS'724679667'
p1737
VCalwin Lim
p1738
sS'735119712'
p1739
VJoey Yeung
p1740
sS'1203267230'
p1741
VRoy Matthias Goh
p1742
sS'601910818'
p1743
VLee Chu Yong Mark
p1744
sS'585538203'
p1745
VEthan Aw
p1746
sS'599561823'
p1747
VLouis Tan
p1748
sS'594078037'
p1749
VSiHeng Yeo
p1750
saa(lp1751
S'10204310732078217'
p1752
aS'1407639038'
p1753
a(dp1754
S'600967843'
p1755
VEdwin Liang
p1756
sS'1526516271'
p1757
VWong Yi Ren
p1758
sS'564348949'
p1759
VJonathan Tjioe
p1760
sS'1542153685'
p1761
VHelen Segara
p1762
sS'100000481243801'
p1763
VTeng Meow Kheng
p1764
sS'600281044'
p1765
VShuMing Tay
p1766
sS'1078533688'
p1767
VLee Kwan Ter
p1768
sS'724679667'
p1769
VCalwin Lim
p1770
sS'735119712'
p1771
VJoey Yeung
p1772
sS'1203267230'
p1773
VRoy Matthias Goh
p1774
sS'601910818'
p1775
VLee Chu Yong Mark
p1776
sS'585538203'
p1777
VEthan Aw
p1778
sS'599561823'
p1779
VLouis Tan
p1780
sS'594078037'
p1781
VSiHeng Yeo
p1782
saa(lp1783
S'10204310728958139'
p1784
aS'1407639007'
p1785
a(dp1786
S'600967843'
p1787
VEdwin Liang
p1788
sS'1526516271'
p1789
VWong Yi Ren
p1790
sS'564348949'
p1791
VJonathan Tjioe
p1792
sS'1542153685'
p1793
VHelen Segara
p1794
sS'100000481243801'
p1795
VTeng Meow Kheng
p1796
sS'600281044'
p1797
VShuMing Tay
p1798
sS'1078533688'
p1799
VLee Kwan Ter
p1800
sS'724679667'
p1801
VCalwin Lim
p1802
sS'735119712'
p1803
VJoey Yeung
p1804
sS'1203267230'
p1805
VRoy Matthias Goh
p1806
sS'601910818'
p1807
VLee Chu Yong Mark
p1808
sS'585538203'
p1809
VEthan Aw
p1810
sS'599561823'
p1811
VLouis Tan
p1812
sS'594078037'
p1813
VSiHeng Yeo
p1814
saa(lp1815
S'10204310699797410'
p1816
aS'1407638616'
p1817
a(dp1818
S'600967843'
p1819
VEdwin Liang
p1820
sS'601910818'
p1821
VLee Chu Yong Mark
p1822
saa(lp1823
S'10204310693077242'
p1824
aS'1407638535'
p1825
a(dp1826
S'600967843'
p1827
VEdwin Liang
p1828
sS'601910818'
p1829
VLee Chu Yong Mark
p1830
saa(lp1831
S'10204310689197145'
p1832
aS'1407638462'
p1833
a(dp1834
S'600967843'
p1835
VEdwin Liang
p1836
sS'601910818'
p1837
VLee Chu Yong Mark
p1838
sS'724679667'
p1839
VCalwin Lim
p1840
saa(lp1841
S'10204310688957139'
p1842
aS'1407638460'
p1843
a(dp1844
S'600967843'
p1845
VEdwin Liang
p1846
sS'601910818'
p1847
VLee Chu Yong Mark
p1848
sS'724679667'
p1849
VCalwin Lim
p1850
saa(lp1851
S'10204310774559279'
p1852
aS'1407639525'
p1853
a(dp1854
S'600967843'
p1855
VEdwin Liang
p1856
sS'601910818'
p1857
VLee Chu Yong Mark
p1858
sS'1203267230'
p1859
VRoy Matthias Goh
p1860
sS'1078533688'
p1861
VLee Kwan Ter
p1862
saa(lp1863
S'10204310754678782'
p1864
aS'1407639278'
p1865
a(dp1866
S'600967843'
p1867
VEdwin Liang
p1868
sS'735119712'
p1869
VJoey Yeung
p1870
sS'1203267230'
p1871
VRoy Matthias Goh
p1872
sS'601910818'
p1873
VLee Chu Yong Mark
p1874
sS'600281044'
p1875
VShuMing Tay
p1876
saa(lp1877
S'10204310727398100'
p1878
aS'1407638997'
p1879
a(dp1880
S'600967843'
p1881
VEdwin Liang
p1882
sS'564348949'
p1883
VJonathan Tjioe
p1884
sS'1078533688'
p1885
VLee Kwan Ter
p1886
sS'724679667'
p1887
VCalwin Lim
p1888
sS'601910818'
p1889
VLee Chu Yong Mark
p1890
sS'594078037'
p1891
VSiHeng Yeo
p1892
saa(lp1893
S'10204310727238096'
p1894
aS'1407638996'
p1895
a(dp1896
S'543022349'
p1897
VAvan Kwek
p1898
sS'1542153685'
p1899
VHelen Segara
p1900
sS'600281044'
p1901
VShuMing Tay
p1902
sS'1078533688'
p1903
VLee Kwan Ter
p1904
sS'724679667'
p1905
VCalwin Lim
p1906
sS'735119712'
p1907
VJoey Yeung
p1908
sS'601910818'
p1909
VLee Chu Yong Mark
p1910
sS'599561823'
p1911
VLouis Tan
p1912
sS'594078037'
p1913
VSiHeng Yeo
p1914
saa(lp1915
S'10204310725958064'
p1916
aS'1407638973'
p1917
a(dp1918
S'543022349'
p1919
VAvan Kwek
p1920
sS'601910818'
p1921
VLee Chu Yong Mark
p1922
sS'1542153685'
p1923
VHelen Segara
p1924
sS'1078533688'
p1925
VLee Kwan Ter
p1926
sS'735119712'
p1927
VJoey Yeung
p1928
sS'564348949'
p1929
VJonathan Tjioe
p1930
sS'594078037'
p1931
VSiHeng Yeo
p1932
saa(lp1933
S'10204310724118018'
p1934
aS'1407638948'
p1935
a(dp1936
S'600967843'
p1937
VEdwin Liang
p1938
sS'601910818'
p1939
VLee Chu Yong Mark
p1940
sS'100000481243801'
p1941
VTeng Meow Kheng
p1942
saa(lp1943
S'10204310722477977'
p1944
aS'1407638926'
p1945
a(dp1946
S'600967843'
p1947
VEdwin Liang
p1948
sS'601910818'
p1949
VLee Chu Yong Mark
p1950
sS'100000481243801'
p1951
VTeng Meow Kheng
p1952
saa(lp1953
S'10204310718917888'
p1954
aS'1407638869'
p1955
a(dp1956
S'600967843'
p1957
VEdwin Liang
p1958
sS'1203267230'
p1959
VRoy Matthias Goh
p1960
sS'601910818'
p1961
VLee Chu Yong Mark
p1962
sS'100000481243801'
p1963
VTeng Meow Kheng
p1964
saa(lp1965
S'10204310713237746'
p1966
aS'1407638783'
p1967
a(dp1968
S'600967843'
p1969
VEdwin Liang
p1970
sS'543022349'
p1971
VAvan Kwek
p1972
sS'1542153685'
p1973
VHelen Segara
p1974
sS'600281044'
p1975
VShuMing Tay
p1976
sS'1203267230'
p1977
VRoy Matthias Goh
p1978
sS'601910818'
p1979
VLee Chu Yong Mark
p1980
saa(lp1981
S'10204310692557229'
p1982
aS'1407638531'
p1983
a(dp1984
S'600967843'
p1985
VEdwin Liang
p1986
sS'601910818'
p1987
VLee Chu Yong Mark
p1988
sS'599561823'
p1989
VLouis Tan
p1990
saa(lp1991
S'10204310690637181'
p1992
aS'1407638482'
p1993
a(dp1994
S'600967843'
p1995
VEdwin Liang
p1996
sS'601910818'
p1997
VLee Chu Yong Mark
p1998
sS'599561823'
p1999
VLouis Tan
p2000
saa(lp2001
S'10204310687157094'
p2002
aS'1407638433'
p2003
a(dp2004
S'600967843'
p2005
VEdwin Liang
p2006
sS'601910818'
p2007
VLee Chu Yong Mark
p2008
sS'599561823'
p2009
VLouis Tan
p2010
sS'724679667'
p2011
VCalwin Lim
p2012
saa(lp2013
S'10204310685197045'
p2014
aS'1407638416'
p2015
a(dp2016
S'600967843'
p2017
VEdwin Liang
p2018
sS'601910818'
p2019
VLee Chu Yong Mark
p2020
sS'724679667'
p2021
VCalwin Lim
p2022
saa(lp2023
S'10204310679076892'
p2024
aS'1407638358'
p2025
a(dp2026
S'600967843'
p2027
VEdwin Liang
p2028
sS'1203267230'
p2029
VRoy Matthias Goh
p2030
sS'601910818'
p2031
VLee Chu Yong Mark
p2032
sS'724679667'
p2033
VCalwin Lim
p2034
saa(lp2035
S'10204310675796810'
p2036
aS'1407638301'
p2037
a(dp2038
S'600967843'
p2039
VEdwin Liang
p2040
sS'543022349'
p2041
VAvan Kwek
p2042
sS'601910818'
p2043
VLee Chu Yong Mark
p2044
sS'599561823'
p2045
VLouis Tan
p2046
saa(lp2047
S'10204310671556704'
p2048
aS'1407638259'
p2049
a(dp2050
S'600967843'
p2051
VEdwin Liang
p2052
sS'1203267230'
p2053
VRoy Matthias Goh
p2054
sS'601910818'
p2055
VLee Chu Yong Mark
p2056
sS'724679667'
p2057
VCalwin Lim
p2058
saa(lp2059
S'10204310670996690'
p2060
aS'1407638254'
p2061
a(dp2062
S'600967843'
p2063
VEdwin Liang
p2064
sS'1203267230'
p2065
VRoy Matthias Goh
p2066
sS'601910818'
p2067
VLee Chu Yong Mark
p2068
sS'724679667'
p2069
VCalwin Lim
p2070
saa(lp2071
S'10204310666156569'
p2072
aS'1407638172'
p2073
a(dp2074
S'600967843'
p2075
VEdwin Liang
p2076
sS'1203267230'
p2077
VRoy Matthias Goh
p2078
sS'601910818'
p2079
VLee Chu Yong Mark
p2080
sS'599561823'
p2081
VLouis Tan
p2082
sS'724679667'
p2083
VCalwin Lim
p2084
saa(lp2085
S'10204310663236496'
p2086
aS'1407638132'
p2087
a(dp2088
S'600967843'
p2089
VEdwin Liang
p2090
sS'543022349'
p2091
VAvan Kwek
p2092
sS'100000481243801'
p2093
VTeng Meow Kheng
p2094
sS'724679667'
p2095
VCalwin Lim
p2096
sS'1203267230'
p2097
VRoy Matthias Goh
p2098
sS'601910818'
p2099
VLee Chu Yong Mark
p2100
sS'599561823'
p2101
VLouis Tan
p2102
saa(lp2103
S'10204310660956439'
p2104
aS'1407638096'
p2105
a(dp2106
S'600967843'
p2107
VEdwin Liang
p2108
sS'601910818'
p2109
VLee Chu Yong Mark
p2110
sS'100000481243801'
p2111
VTeng Meow Kheng
p2112
sS'724679667'
p2113
VCalwin Lim
p2114
saa(lp2115
S'10204310658836386'
p2116
aS'1407638061'
p2117
a(dp2118
S'601910818'
p2119
VLee Chu Yong Mark
p2120
sS'724679667'
p2121
VCalwin Lim
p2122
sS'599561823'
p2123
VLouis Tan
p2124
saa(lp2125
S'10204310658436376'
p2126
aS'1407638052'
p2127
a(dp2128
S'735119712'
p2129
VJoey Yeung
p2130
sS'601910818'
p2131
VLee Chu Yong Mark
p2132
sS'724679667'
p2133
VCalwin Lim
p2134
sS'599561823'
p2135
VLouis Tan
p2136
saa(lp2137
S'10204310656916338'
p2138
aS'1407638029'
p2139
a(dp2140
S'735119712'
p2141
VJoey Yeung
p2142
sS'601910818'
p2143
VLee Chu Yong Mark
p2144
saa(lp2145
S'10152305003256824'
p2146
aS'1407514818'
p2147
a(dp2148
S'601910818'
p2149
VLee Chu Yong Mark
p2150
sS'724679667'
p2151
VCalwin Lim
p2152
saa(lp2153
S'10152586590448374'
p2154
aS'1407164054'
p2155
a(dp2156
S'600967843'
p2157
VEdwin Liang
p2158
sS'595277736'
p2159
VJun Yi Lee
p2160
sS'601910818'
p2161
VLee Chu Yong Mark
p2162
sS'1601660809'
p2163
VChunqi Zhu
p2164
sS'758247561'
p2165
VSim Zhen Wei
p2166
sS'716018254'
p2167
VNigel Ng Yingjie
p2168
sS'594083526'
p2169
VFoo Toon Min
p2170
sS'547022235'
p2171
VJohn Yong
p2172
sS'532996691'
p2173
VJonathan Voon
p2174
saa(lp2175
S'10154360490225104'
p2176
aS'1406390731'
p2177
a(dp2178
S'601910818'
p2179
VLee Chu Yong Mark
p2180
sS'601458805'
p2181
VNg Lihui
p2182
sS'832975103'
p2183
VAlvin Liew
p2184
sS'512034022'
p2185
VTee Tze Yong
p2186
saa(lp2187
S'10154360474610104'
p2188
aS'1406390368'
p2189
a(dp2190
S'601910818'
p2191
VLee Chu Yong Mark
p2192
sS'601458805'
p2193
VNg Lihui
p2194
sS'832975103'
p2195
VAlvin Liew
p2196
sS'512034022'
p2197
VTee Tze Yong
p2198
saa(lp2199
S'10154360474500104'
p2200
aS'1406390365'
p2201
a(dp2202
S'601910818'
p2203
VLee Chu Yong Mark
p2204
sS'601458805'
p2205
VNg Lihui
p2206
sS'832975103'
p2207
VAlvin Liew
p2208
sS'631201810'
p2209
VNg Zhi Yi
p2210
sS'512034022'
p2211
VTee Tze Yong
p2212
saa(lp2213
S'10152427639630119'
p2214
aS'1400772817'
p2215
a(dp2216
S'840583373'
p2217
VMX Chai
p2218
sS'601910818'
p2219
VLee Chu Yong Mark
p2220
sS'646033821'
p2221
VSeah Chin Ying
p2222
saa(lp2223
S'10152224805115819'
p2224
aS'1399047137'
p2225
a(dp2226
S'600967843'
p2227
VEdwin Liang
p2228
sS'556300118'
p2229
VRachel Koh
p2230
sS'601910818'
p2231
VLee Chu Yong Mark
p2232
sS'840583373'
p2233
VMX Chai
p2234
sS'724443667'
p2235
VYang Kenneth Lu
p2236
saa(lp2237
S'10152203943210819'
p2238
aS'1398165884'
p2239
a(dp2240
S'601910818'
p2241
VLee Chu Yong Mark
p2242
saa(lp2243
S'10152091582470819'
p2244
aS'1393158095'
p2245
a(dp2246
S'824635446'
p2247
VCharlie Atethechocolatefactory
p2248
sS'601910818'
p2249
VLee Chu Yong Mark
p2250
sS'1553374108'
p2251
VBernie Lee
p2252
sS'675528106'
p2253
VSheena Seng
p2254
saa(lp2255
S'10152223099713374'
p2256
aS'1393099200'
p2257
a(dp2258
S'600967843'
p2259
VEdwin Liang
p2260
sS'689417797'
p2261
VYip Cheng Wai
p2262
sS'595277736'
p2263
VJun Yi Lee
p2264
sS'655422545'
p2265
VZhou Kai
p2266
sS'760604218'
p2267
VKliven Tan
p2268
sS'840583373'
p2269
VMX Chai
p2270
sS'1601660809'
p2271
VChunqi Zhu
p2272
sS'738457290'
p2273
VLoke Lf
p2274
sS'594083526'
p2275
VFoo Toon Min
p2276
sS'601910818'
p2277
VLee Chu Yong Mark
p2278
saa(lp2279
S'10151927945522798'
p2280
aS'1389795664'
p2281
a(dp2282
S'600967843'
p2283
VEdwin Liang
p2284
sS'689417797'
p2285
VYip Cheng Wai
p2286
sS'595277736'
p2287
VJun Yi Lee
p2288
sS'655422545'
p2289
VZhou Kai
p2290
sS'760604218'
p2291
VKliven Tan
p2292
sS'840583373'
p2293
VMX Chai
p2294
sS'1601660809'
p2295
VChunqi Zhu
p2296
sS'738457290'
p2297
VLoke Lf
p2298
sS'594083526'
p2299
VFoo Toon Min
p2300
sS'601910818'
p2301
VLee Chu Yong Mark
p2302
saa(lp2303
S'10152013018710819'
p2304
aS'1389501938'
p2305
a(dp2306
S'646142505'
p2307
VShawn Ng
p2308
sS'601910818'
p2309
VLee Chu Yong Mark
p2310
sS'832975103'
p2311
VAlvin Liew
p2312
sS'616283047'
p2313
VZheng Yi
p2314
sS'100003353210488'
p2315
VChan Yarn Kit
p2316
saa(lp2317
S'10151807144526447'
p2318
aS'1388789223'
p2319
a(dp2320
S'531868159'
p2321
VMelissa Chan
p2322
sS'601910818'
p2323
VLee Chu Yong Mark
p2324
sS'662111446'
p2325
VLim Chern Yuen
p2326
saa(lp2327
S'10151807143936447'
p2328
aS'1388789195'
p2329
a(dp2330
S'531868159'
p2331
VMelissa Chan
p2332
sS'601910818'
p2333
VLee Chu Yong Mark
p2334
sS'662111446'
p2335
VLim Chern Yuen
p2336
saa(lp2337
S'10151807140261447'
p2338
aS'1388789090'
p2339
a(dp2340
S'601910818'
p2341
VLee Chu Yong Mark
p2342
saa(lp2343
S'10151913476018160'
p2344
aS'1388715908'
p2345
a(dp2346
S'601910818'
p2347
VLee Chu Yong Mark
p2348
saa(lp2349
S'10151913475778160'
p2350
aS'1388715898'
p2351
a(dp2352
S'601910818'
p2353
VLee Chu Yong Mark
p2354
saa(lp2355
S'10152647108956777'
p2356
aS'1388707660'
p2357
a(dp2358
S'531868159'
p2359
VMelissa Chan
p2360
sS'601910818'
p2361
VLee Chu Yong Mark
p2362
sS'662111446'
p2363
VLim Chern Yuen
p2364
saa(lp2365
S'10152647108536777'
p2366
aS'1388707643'
p2367
a(dp2368
S'601910818'
p2369
VLee Chu Yong Mark
p2370
saa(lp2371
S'10152647108426777'
p2372
aS'1388707641'
p2373
a(dp2374
S'601910818'
p2375
VLee Chu Yong Mark
p2376
saa(lp2377
S'10152647107826777'
p2378
aS'1388707619'
p2379
a(dp2380
S'601910818'
p2381
VLee Chu Yong Mark
p2382
saa(lp2383
S'10151868711812798'
p2384
aS'1387144513'
p2385
a(dp2386
S'689417797'
p2387
VYip Cheng Wai
p2388
sS'756759929'
p2389
VXue Zheng Wong
p2390
sS'1476772218'
p2391
VHan Loong
p2392
sS'594083526'
p2393
VFoo Toon Min
p2394
sS'601910818'
p2395
VLee Chu Yong Mark
p2396
sS'662111446'
p2397
VLim Chern Yuen
p2398
saa(lp2399
S'10151935105840119'
p2400
aS'1381596176'
p2401
a(dp2402
S'840583373'
p2403
VMX Chai
p2404
sS'601910818'
p2405
VLee Chu Yong Mark
p2406
sS'646033821'
p2407
VSeah Chin Ying
p2408
saa(lp2409
S'10151870381523374'
p2410
aS'1380099956'
p2411
a(dp2412
S'600967843'
p2413
VEdwin Liang
p2414
sS'601910818'
p2415
VLee Chu Yong Mark
p2416
saa(lp2417
S'10151763302095819'
p2418
aS'1379148840'
p2419
a(dp2420
S'840583373'
p2421
VMX Chai
p2422
sS'601910818'
p2423
VLee Chu Yong Mark
p2424
sS'646033821'
p2425
VSeah Chin Ying
p2426
sS'724443667'
p2427
VYang Kenneth Lu
p2428
saa(lp2429
S'10151677483703822'
p2430
aS'1379152860'
p2431
a(dp2432
S'601910818'
p2433
VLee Chu Yong Mark
p2434
sS'840583373'
p2435
VMX Chai
p2436
sS'1082054193'
p2437
VSue Zheng Hao
p2438
sS'1389777357'
p2439
VRay Yan
p2440
saa(lp2441
S'10151677482388822'
p2442
aS'1379152860'
p2443
a(dp2444
S'601910818'
p2445
VLee Chu Yong Mark
p2446
saa(lp2447
S'10151763302000819'
p2448
aS'1379148840'
p2449
a(dp2450
S'10151763307560819'
p2451
VChao Xu
p2452
sS'601910818'
p2453
VLee Chu Yong Mark
p2454
sS'745548182'
p2455
VSzeto Kah Keong
p2456
sS'832975103'
p2457
VAlvin Liew
p2458
saa(lp2459
S'10151763300465819'
p2460
aS'1379148840'
p2461
a(dp2462
S'600967843'
p2463
VEdwin Liang
p2464
sS'840583373'
p2465
VMX Chai
p2466
sS'601910818'
p2467
VLee Chu Yong Mark
p2468
sS'646033821'
p2469
VSeah Chin Ying
p2470
saa(lp2471
S'10151827270198048'
p2472
aS'1378621200'
p2473
a(dp2474
S'646142505'
p2475
VShawn Ng
p2476
sS'100000513474595'
p2477
VTimothy Yap
p2478
sS'601910818'
p2479
VLee Chu Yong Mark
p2480
sS'832975103'
p2481
VAlvin Liew
p2482
saa(lp2483
S'10152366736666777'
p2484
aS'1376267895'
p2485
a(dp2486
S'1047768460'
p2487
VEvelyn He Xinyi
p2488
sS'832975103'
p2489
VAlvin Liew
p2490
sS'646142505'
p2491
VShawn Ng
p2492
sS'669654770'
p2493
VFan Yu Zhen
p2494
sS'601910818'
p2495
VLee Chu Yong Mark
p2496
sS'662111446'
p2497
VLim Chern Yuen
p2498
saa(lp2499
S'10152366736141777'
p2500
aS'1376267874'
p2501
a(dp2502
S'736201622'
p2503
VDarren Lum
p2504
sS'1047768460'
p2505
VEvelyn He Xinyi
p2506
sS'735798259'
p2507
VLeong Zhao Hong
p2508
sS'832975103'
p2509
VAlvin Liew
p2510
sS'669654770'
p2511
VFan Yu Zhen
p2512
sS'601910818'
p2513
VLee Chu Yong Mark
p2514
sS'662111446'
p2515
VLim Chern Yuen
p2516
saa(lp2517
S'10151687590495819'
p2518
aS'1376192132'
p2519
a(dp2520
S'601910818'
p2521
VLee Chu Yong Mark
p2522
sS'616283047'
p2523
VZheng Yi
p2524
saa(lp2525
S'10151687590035819'
p2526
aS'1376192122'
p2527
a(dp2528
S'601910818'
p2529
VLee Chu Yong Mark
p2530
saa(lp2531
S'10151687589830819'
p2532
aS'1376192106'
p2533
a(dp2534
S'1047768460'
p2535
VEvelyn He Xinyi
p2536
sS'601910818'
p2537
VLee Chu Yong Mark
p2538
sS'669654770'
p2539
VFan Yu Zhen
p2540
saa(lp2541
S'10151687589240819'
p2542
aS'1376192080'
p2543
a(dp2544
S'1047768460'
p2545
VEvelyn He Xinyi
p2546
sS'601910818'
p2547
VLee Chu Yong Mark
p2548
saa(lp2549
S'10151687589235819'
p2550
aS'1376192080'
p2551
a(dp2552
S'646142505'
p2553
VShawn Ng
p2554
sS'601910818'
p2555
VLee Chu Yong Mark
p2556
sS'832975103'
p2557
VAlvin Liew
p2558
sS'616283047'
p2559
VZheng Yi
p2560
sS'100003353210488'
p2561
VChan Yarn Kit
p2562
saa(lp2563
S'10151687588745819'
p2564
aS'1376192062'
p2565
a(dp2566
S'735798259'
p2567
VLeong Zhao Hong
p2568
sS'548517812'
p2569
VOng MurFei
p2570
sS'832975103'
p2571
VAlvin Liew
p2572
sS'601910818'
p2573
VLee Chu Yong Mark
p2574
sS'662111446'
p2575
VLim Chern Yuen
p2576
sS'100003353210488'
p2577
VChan Yarn Kit
p2578
saa(lp2579
S'10151687588570819'
p2580
aS'1376192053'
p2581
a(dp2582
S'601910818'
p2583
VLee Chu Yong Mark
p2584
saa(lp2585
S'10151687588330819'
p2586
aS'1376192047'
p2587
a(dp2588
S'646142505'
p2589
VShawn Ng
p2590
sS'601910818'
p2591
VLee Chu Yong Mark
p2592
sS'662111446'
p2593
VLim Chern Yuen
p2594
sS'1086483192'
p2595
VHoang Lan David
p2596
saa(lp2597
S'10151687587620819'
p2598
aS'1376192022'
p2599
a(dp2600
S'601910818'
p2601
VLee Chu Yong Mark
p2602
sS'832975103'
p2603
VAlvin Liew
p2604
saa(lp2605
S'10151687587220819'
p2606
aS'1376192012'
p2607
a(dp2608
S'601910818'
p2609
VLee Chu Yong Mark
p2610
saa(lp2611
S'10151686485210819'
p2612
aS'1376161200'
p2613
a(dp2614
S'100003070898994'
p2615
VPek Jie Hui
p2616
sS'1047768460'
p2617
VEvelyn He Xinyi
p2618
sS'570314449'
p2619
VKerry Cao
p2620
sS'548517812'
p2621
VOng MurFei
p2622
sS'644405884'
p2623
VEsther Lim
p2624
sS'100000513474595'
p2625
VTimothy Yap
p2626
sS'1014814854'
p2627
VChingyee Chia
p2628
sS'1099456898'
p2629
VFan Yi
p2630
sS'646142505'
p2631
VShawn Ng
p2632
sS'832975103'
p2633
VAlvin Liew
p2634
sS'616283047'
p2635
VZheng Yi
p2636
sS'614886796'
p2637
VEdward Neo
p2638
sS'669654770'
p2639
VFan Yu Zhen
p2640
sS'601910818'
p2641
VLee Chu Yong Mark
p2642
sS'662111446'
p2643
VLim Chern Yuen
p2644
sS'10151686538775819'
p2645
Vjia ching
p2646
sS'100003353210488'
p2647
VChan Yarn Kit
p2648
saa(lp2649
S'10151686485270819'
p2650
aS'1376150400'
p2651
a(dp2652
S'1047768460'
p2653
VEvelyn He Xinyi
p2654
sS'745548182'
p2655
VSzeto Kah Keong
p2656
sS'548517812'
p2657
VOng MurFei
p2658
sS'735798259'
p2659
VLeong Zhao Hong
p2660
sS'100000513474595'
p2661
VTimothy Yap
p2662
sS'832975103'
p2663
VAlvin Liew
p2664
sS'616283047'
p2665
VZheng Yi
p2666
sS'646142505'
p2667
VShawn Ng
p2668
sS'669654770'
p2669
VFan Yu Zhen
p2670
sS'601910818'
p2671
VLee Chu Yong Mark
p2672
sS'662111446'
p2673
VLim Chern Yuen
p2674
sS'1086483192'
p2675
VHoang Lan David
p2676
sS'100003353210488'
p2677
VChan Yarn Kit
p2678
saa(lp2679
S'10200622604519929'
p2680
aS'1369656000'
p2681
a(dp2682
S'601910818'
p2683
VLee Chu Yong Mark
p2684
sS'547207662'
p2685
VMervyn Lee
p2686
saa(lp2687
S'10151515503281492'
p2688
aS'1364731200'
p2689
a(dp2690
S'716251823'
p2691
VJiaquan Ng
p2692
sS'1047768460'
p2693
VEvelyn He Xinyi
p2694
sS'1160483062'
p2695
VClarice Au
p2696
sS'743831491'
p2697
VWalter Seow
p2698
sS'669654770'
p2699
VFan Yu Zhen
p2700
sS'601910818'
p2701
VLee Chu Yong Mark
p2702
saa(lp2703
S'10151442552035819'
p2704
aS'1364723580'
p2705
a(dp2706
S'669654770'
p2707
VFan Yu Zhen
p2708
sS'601910818'
p2709
VLee Chu Yong Mark
p2710
sS'1047768460'
p2711
VEvelyn He Xinyi
p2712
saa(lp2713
S'10151442463095819'
p2714
aS'1364721000'
p2715
a(dp2716
S'669654770'
p2717
VFan Yu Zhen
p2718
sS'601910818'
p2719
VLee Chu Yong Mark
p2720
sS'1047768460'
p2721
VEvelyn He Xinyi
p2722
saa(lp2723
S'10200091318859566'
p2724
aS'1364107437'
p2725
a(dp2726
S'1047768460'
p2727
VEvelyn He Xinyi
p2728
sS'832975103'
p2729
VAlvin Liew
p2730
sS'616283047'
p2731
VZheng Yi
p2732
sS'669654770'
p2733
VFan Yu Zhen
p2734
sS'601910818'
p2735
VLee Chu Yong Mark
p2736
sS'100003353210488'
p2737
VChan Yarn Kit
p2738
saa(lp2739
S'10200091312699412'
p2740
aS'1364107219'
p2741
a(dp2742
S'1047768460'
p2743
VEvelyn He Xinyi
p2744
sS'832975103'
p2745
VAlvin Liew
p2746
sS'616283047'
p2747
VZheng Yi
p2748
sS'669654770'
p2749
VFan Yu Zhen
p2750
sS'601910818'
p2751
VLee Chu Yong Mark
p2752
sS'100003353210488'
p2753
VChan Yarn Kit
p2754
saa(lp2755
S'10151399332005819'
p2756
aS'1362394800'
p2757
a(dp2758
S'100000993502349'
p2759
VMelvin Quan
p2760
sS'531341403'
p2761
VK Jun Wei
p2762
sS'1646285319'
p2763
VTony Hang
p2764
sS'100000592640068'
p2765
VAdam Tan
p2766
sS'100002060778182'
p2767
VShawn Wong
p2768
sS'10151399338910819'
p2769
VWai Chung
p2770
sS'10151399338865819'
p2771
VErnest
p2772
sS'601910818'
p2773
VLee Chu Yong Mark
p2774
sS'663866484'
p2775
VQuek Feng Rong Kenneth
p2776
sS'540643165'
p2777
VJin Jie
p2778
saa(lp2779
S'10151346415819671'
p2780
aS'1362209578'
p2781
a(dp2782
S'601910818'
p2783
VLee Chu Yong Mark
p2784
sS'724443667'
p2785
VYang Kenneth Lu
p2786
sS'632059508'
p2787
VTay Kiat Long
p2788
sS'646033821'
p2789
VSeah Chin Ying
p2790
saa(lp2791
S'10151346414919671'
p2792
aS'1362209535'
p2793
a(dp2794
S'724443667'
p2795
VYang Kenneth Lu
p2796
sS'601910818'
p2797
VLee Chu Yong Mark
p2798
sS'646033821'
p2799
VSeah Chin Ying
p2800
sS'810480981'
p2801
VClarence Sim Wei Hung
p2802
saa(lp2803
S'425073750904647'
p2804
aS'1357936764'
p2805
a(dp2806
S'601910818'
p2807
VLee Chu Yong Mark
p2808
sS'100002060778182'
p2809
VShawn Wong
p2810
sS'547207662'
p2811
VMervyn Lee
p2812
saa(lp2813
S'425073697571319'
p2814
aS'1357936761'
p2815
a(dp2816
S'601910818'
p2817
VLee Chu Yong Mark
p2818
sS'100000592640068'
p2819
VAdam Tan
p2820
saa(lp2821
S'425073667571322'
p2822
aS'1357936759'
p2823
a(dp2824
S'601910818'
p2825
VLee Chu Yong Mark
p2826
sS'100002060778182'
p2827
VShawn Wong
p2828
sS'547207662'
p2829
VMervyn Lee
p2830
saa(lp2831
S'425073630904659'
p2832
aS'1357936758'
p2833
a(dp2834
S'601910818'
p2835
VLee Chu Yong Mark
p2836
saa(lp2837
S'425073500904672'
p2838
aS'1357936752'
p2839
a(dp2840
S'601910818'
p2841
VLee Chu Yong Mark
p2842
saa(lp2843
S'425073307571358'
p2844
aS'1357936745'
p2845
a(dp2846
S'521343623'
p2847
VTervin Yeo Kee Wang
p2848
sS'100000993502349'
p2849
VMelvin Quan
p2850
sS'531341403'
p2851
VK Jun Wei
p2852
sS'100000592640068'
p2853
VAdam Tan
p2854
sS'100002060778182'
p2855
VShawn Wong
p2856
sS'547207662'
p2857
VMervyn Lee
p2858
sS'601910818'
p2859
VLee Chu Yong Mark
p2860
saa(lp2861
S'425073250904697'
p2862
aS'1357936741'
p2863
a(dp2864
S'601910818'
p2865
VLee Chu Yong Mark
p2866
sS'531341403'
p2867
VK Jun Wei
p2868
saa(lp2869
S'10151180634187111'
p2870
aS'1357721320'
p2871
a(dp2872
S'600967843'
p2873
VEdwin Liang
p2874
sS'595277736'
p2875
VJun Yi Lee
p2876
sS'1476772218'
p2877
VHan Loong
p2878
sS'760604218'
p2879
VKliven Tan
p2880
sS'1060529401'
p2881
VJoshua Lim
p2882
sS'1601660809'
p2883
VChunqi Zhu
p2884
sS'773628884'
p2885
VDarius Chan
p2886
sS'1651616676'
p2887
VLi Qizhu
p2888
sS'547022235'
p2889
VJohn Yong
p2890
sS'647117814'
p2891
VLester Mok
p2892
sS'716018254'
p2893
VNigel Ng Yingjie
p2894
sS'601910818'
p2895
VLee Chu Yong Mark
p2896
sS'1344728347'
p2897
VErnest Wyatt
p2898
sS'532996691'
p2899
VJonathan Voon
p2900
saa(lp2901
S'10151210578508822'
p2902
aS'1356979739'
p2903
a(dp2904
S'556300118'
p2905
VRachel Koh
p2906
sS'601910818'
p2907
VLee Chu Yong Mark
p2908
saa(lp2909
S'10151117250121447'
p2910
aS'1354638178'
p2911
a(dp2912
S'601910818'
p2913
VLee Chu Yong Mark
p2914
sS'662111446'
p2915
VLim Chern Yuen
p2916
saa(lp2917
S'10151117250116447'
p2918
aS'1354638177'
p2919
a(dp2920
S'601910818'
p2921
VLee Chu Yong Mark
p2922
sS'662111446'
p2923
VLim Chern Yuen
p2924
saa(lp2925
S'10151117248836447'
p2926
aS'1354638082'
p2927
a(dp2928
S'601910818'
p2929
VLee Chu Yong Mark
p2930
saa(lp2931
S'402255469853142'
p2932
aS'1353584036'
p2933
a(dp2934
S'1752506120'
p2935
VAnson Ong Cai Hua
p2936
sS'601910818'
p2937
VLee Chu Yong Mark
p2938
sS'100001838126251'
p2939
VKouk Leong Jun
p2940
saa(lp2941
S'10151084452902844'
p2942
aS'1349793858'
p2943
a(dp2944
S'674158062'
p2945
VYu Xuan Chin
p2946
sS'100003984325851'
p2947
VSinying Chua
p2948
sS'581641434'
p2949
VRyan Tan
p2950
sS'575877949'
p2951
VChua Yi Lin
p2952
sS'602210312'
p2953
VChin Ken Min
p2954
sS'599218880'
p2955
VZhi Ting Leow
p2956
sS'840583373'
p2957
VMX Chai
p2958
sS'722897303'
p2959
VNicole Liang
p2960
sS'780604352'
p2961
VLee Yao Zhang Jeremy
p2962
sS'700153638'
p2963
VLuke Tan Zhao Xun
p2964
sS'1132233109'
p2965
VKelly Chng
p2966
sS'601910818'
p2967
VLee Chu Yong Mark
p2968
sS'738912925'
p2969
VShayne Tan
p2970
sS'670007419'
p2971
VShane Lee
p2972
saa(lp2973
S'10151229900040119'
p2974
aS'1348508441'
p2975
a(dp2976
S'840583373'
p2977
VMX Chai
p2978
sS'601910818'
p2979
VLee Chu Yong Mark
p2980
sS'646033821'
p2981
VSeah Chin Ying
p2982
saa(lp2983
S'10151118163319771'
p2984
aS'1345263369'
p2985
a(dp2986
S'1047768460'
p2987
VEvelyn He Xinyi
p2988
sS'640066776'
p2989
VCao Yun
p2990
sS'662111446'
p2991
VLim Chern Yuen
p2992
sS'601910818'
p2993
VLee Chu Yong Mark
p2994
sS'735798259'
p2995
VLeong Zhao Hong
p2996
saa(lp2997
S'3842683059399'
p2998
aS'1344703611'
p2999
a(dp3000
S'669654770'
p3001
VFan Yu Zhen
p3002
sS'1047768460'
p3003
VEvelyn He Xinyi
p3004
sS'547022235'
p3005
VJohn Yong
p3006
sS'601910818'
p3007
VLee Chu Yong Mark
p3008
saa(lp3009
S'3842682179377'
p3010
aS'1344703607'
p3011
a(dp3012
S'601910818'
p3013
VLee Chu Yong Mark
p3014
sS'1047768460'
p3015
VEvelyn He Xinyi
p3016
sS'547022235'
p3017
VJohn Yong
p3018
sS'669654770'
p3019
VFan Yu Zhen
p3020
saa(lp3021
S'3842681539361'
p3022
aS'1344703603'
p3023
a(dp3024
S'669654770'
p3025
VFan Yu Zhen
p3026
sS'1047768460'
p3027
VEvelyn He Xinyi
p3028
sS'547022235'
p3029
VJohn Yong
p3030
sS'601910818'
p3031
VLee Chu Yong Mark
p3032
saa(lp3033
S'3842681179352'
p3034
aS'1344703599'
p3035
a(dp3036
S'100003353210488'
p3037
VChan Yarn Kit
p3038
sS'669654770'
p3039
VFan Yu Zhen
p3040
sS'1047768460'
p3041
VEvelyn He Xinyi
p3042
sS'547022235'
p3043
VJohn Yong
p3044
sS'601910818'
p3045
VLee Chu Yong Mark
p3046
saa(lp3047
S'3842675059199'
p3048
aS'1344703503'
p3049
a(dp3050
S'1047768460'
p3051
VEvelyn He Xinyi
p3052
sS'832975103'
p3053
VAlvin Liew
p3054
sS'616283047'
p3055
VZheng Yi
p3056
sS'669654770'
p3057
VFan Yu Zhen
p3058
sS'601910818'
p3059
VLee Chu Yong Mark
p3060
sS'547022235'
p3061
VJohn Yong
p3062
saa(lp3063
S'10151996925795104'
p3064
aS'1344703195'
p3065
a(dp3066
S'1047768460'
p3067
VEvelyn He Xinyi
p3068
sS'640066776'
p3069
VCao Yun
p3070
sS'100000513474595'
p3071
VTimothy Yap
p3072
sS'832975103'
p3073
VAlvin Liew
p3074
sS'616283047'
p3075
VZheng Yi
p3076
sS'669654770'
p3077
VFan Yu Zhen
p3078
sS'601910818'
p3079
VLee Chu Yong Mark
p3080
sS'662111446'
p3081
VLim Chern Yuen
p3082
sS'547022235'
p3083
VJohn Yong
p3084
sS'1086483192'
p3085
VHoang Lan David
p3086
sS'100003353210488'
p3087
VChan Yarn Kit
p3088
saa(lp3089
S'3841753596163'
p3090
aS'1344679618'
p3091
a(dp3092
S'832975103'
p3093
VAlvin Liew
p3094
sS'601910818'
p3095
VLee Chu Yong Mark
p3096
sS'547022235'
p3097
VJohn Yong
p3098
sS'100003353210488'
p3099
VChan Yarn Kit
p3100
saa(lp3101
S'22218178552'
p3102
aS'1204643909'
p3103
a(dp3104
S'668989715'
p3105
VDennis Woo
p3106
sS'671058646'
p3107
VEng Way Yeo
p3108
sS'547823788'
p3109
VSoh Cheong Keat
p3110
sS'742549789'
p3111
VJon Tan
p3112
sS'740425178'
p3113
VAlfred Wan
p3114
sS'569346844'
p3115
VJanus Low
p3116
sS'601910818'
p3117
VLee Chu Yong Mark
p3118
sS'677963641'
p3119
VChuan Chia
p3120
saa(lp3121
S'10150946518821623'
p3122
aS'1342272836'
p3123
a(dp3124
S'601910818'
p3125
VLee Chu Yong Mark
p3126
sS'640066776'
p3127
VCao Yun
p3128
sS'10150946519561623'
p3129
Vromantic gift
p3130
saa(lp3131
S'10150946517781623'
p3132
aS'1342272789'
p3133
a(dp3134
S'601910818'
p3135
VLee Chu Yong Mark
p3136
saa(lp3137
S'10151748060001777'
p3138
aS'1342268195'
p3139
a(dp3140
S'601910818'
p3141
VLee Chu Yong Mark
p3142
saa(lp3143
S'10151748058246777'
p3144
aS'1342268132'
p3145
a(dp3146
S'736201622'
p3147
VDarren Lum
p3148
sS'100000513474595'
p3149
VTimothy Yap
p3150
sS'640066776'
p3151
VCao Yun
p3152
sS'832975103'
p3153
VAlvin Liew
p3154
sS'669654770'
p3155
VFan Yu Zhen
p3156
sS'601910818'
p3157
VLee Chu Yong Mark
p3158
sS'547022235'
p3159
VJohn Yong
p3160
saa(lp3161
S'10151748058076777'
p3162
aS'1342268127'
p3163
a(dp3164
S'669654770'
p3165
VFan Yu Zhen
p3166
sS'601910818'
p3167
VLee Chu Yong Mark
p3168
saa(lp3169
S'10151748056196777'
p3170
aS'1342268052'
p3171
a(dp3172
S'601910818'
p3173
VLee Chu Yong Mark
p3174
sS'100000513474595'
p3175
VTimothy Yap
p3176
sS'640066776'
p3177
VCao Yun
p3178
saa(lp3179
S'10151748055221777'
p3180
aS'1342268016'
p3181
a(dp3182
S'669654770'
p3183
VFan Yu Zhen
p3184
sS'100000513474595'
p3185
VTimothy Yap
p3186
sS'662111446'
p3187
VLim Chern Yuen
p3188
sS'547022235'
p3189
VJohn Yong
p3190
sS'601910818'
p3191
VLee Chu Yong Mark
p3192
saa(lp3193
S'10151089382665119'
p3194
aS'1342186274'
p3195
a(dp3196
S'601910818'
p3197
VLee Chu Yong Mark
p3198
sS'646033821'
p3199
VSeah Chin Ying
p3200
saa(lp3201
S'10151680393341777'
p3202
aS'1339249032'
p3203
a(dp3204
S'736201622'
p3205
VDarren Lum
p3206
sS'745548182'
p3207
VSzeto Kah Keong
p3208
sS'735798259'
p3209
VLeong Zhao Hong
p3210
sS'640066776'
p3211
VCao Yun
p3212
sS'832975103'
p3213
VAlvin Liew
p3214
sS'669654770'
p3215
VFan Yu Zhen
p3216
sS'601910818'
p3217
VLee Chu Yong Mark
p3218
sS'547022235'
p3219
VJohn Yong
p3220
saa(lp3221
S'10151680392901777'
p3222
aS'1339249022'
p3223
a(dp3224
S'736201622'
p3225
VDarren Lum
p3226
sS'745548182'
p3227
VSzeto Kah Keong
p3228
sS'735798259'
p3229
VLeong Zhao Hong
p3230
sS'640066776'
p3231
VCao Yun
p3232
sS'832975103'
p3233
VAlvin Liew
p3234
sS'669654770'
p3235
VFan Yu Zhen
p3236
sS'601910818'
p3237
VLee Chu Yong Mark
p3238
sS'547022235'
p3239
VJohn Yong
p3240
saa(lp3241
S'10151680391391777'
p3242
aS'1339248976'
p3243
a(dp3244
S'601910818'
p3245
VLee Chu Yong Mark
p3246
sS'735798259'
p3247
VLeong Zhao Hong
p3248
saa(lp3249
S'10150965891505119'
p3250
aS'1337483692'
p3251
a(dp3252
S'556300118'
p3253
VRachel Koh
p3254
sS'601910818'
p3255
VLee Chu Yong Mark
p3256
sS'840583373'
p3257
VMX Chai
p3258
saa(lp3259
S'10150965891170119'
p3260
aS'1337483682'
p3261
a(dp3262
S'556300118'
p3263
VRachel Koh
p3264
sS'601910818'
p3265
VLee Chu Yong Mark
p3266
sS'840583373'
p3267
VMX Chai
p3268
saa(lp3269
S'10150688351035326'
p3270
aS'1334389763'
p3271
a(dp3272
S'747124411'
p3273
VSamuel Tan Yuan Han
p3274
sS'556513771'
p3275
VTroy Tan
p3276
sS'736201622'
p3277
VDarren Lum
p3278
sS'530573725'
p3279
VStanley Koo
p3280
sS'632059508'
p3281
VTay Kiat Long
p3282
sS'562432636'
p3283
V\u9673\u4fca
p3284
sS'607520038'
p3285
VZi Song Lim
p3286
sS'601910818'
p3287
VLee Chu Yong Mark
p3288
saa(lp3289
S'10150659625527844'
p3290
aS'1334127605'
p3291
a(dp3292
S'601910818'
p3293
VLee Chu Yong Mark
p3294
sS'735798259'
p3295
VLeong Zhao Hong
p3296
saa(lp3297
S'10150659625422844'
p3298
aS'1334127598'
p3299
a(dp3300
S'600967843'
p3301
VEdwin Liang
p3302
sS'601910818'
p3303
VLee Chu Yong Mark
p3304
saa(lp3305
S'10150659485341777'
p3306
aS'1333970094'
p3307
a(dp3308
S'601910818'
p3309
VLee Chu Yong Mark
p3310
sS'745548182'
p3311
VSzeto Kah Keong
p3312
sS'832975103'
p3313
VAlvin Liew
p3314
sS'616283047'
p3315
VZheng Yi
p3316
saa(lp3317
S'10150657751781777'
p3318
aS'1333894662'
p3319
a(dp3320
S'1047768460'
p3321
VEvelyn He Xinyi
p3322
sS'601910818'
p3323
VLee Chu Yong Mark
p3324
sS'640066776'
p3325
VCao Yun
p3326
sS'832975103'
p3327
VAlvin Liew
p3328
sS'735798259'
p3329
VLeong Zhao Hong
p3330
saa(lp3331
S'10150663783886623'
p3332
aS'1333888679'
p3333
a(dp3334
S'1047768460'
p3335
VEvelyn He Xinyi
p3336
sS'736201622'
p3337
VDarren Lum
p3338
sS'601910818'
p3339
VLee Chu Yong Mark
p3340
sS'832975103'
p3341
VAlvin Liew
p3342
sS'735798259'
p3343
VLeong Zhao Hong
p3344
saa(lp3345
S'265616863529131'
p3346
aS'1333875955'
p3347
a(dp3348
S'601910818'
p3349
VLee Chu Yong Mark
p3350
saa(lp3351
S'265616416862509'
p3352
aS'1333875898'
p3353
a(dp3354
S'724443667'
p3355
VYang Kenneth Lu
p3356
sS'601910818'
p3357
VLee Chu Yong Mark
p3358
saa(lp3359
S'10150520655140819'
p3360
aS'1327032000'
p3361
a(dp3362
S'786763923'
p3363
VOng Han Wee
p3364
sS'1222628268'
p3365
VWang Mengting
p3366
sS'570314449'
p3367
VKerry Cao
p3368
sS'610269723'
p3369
VZongchen Li
p3370
sS'1506555438'
p3371
VXiaonan Lu
p3372
sS'650642627'
p3373
VHuang Baoxian
p3374
sS'594599421'
p3375
VJoshua Foo
p3376
sS'1555285404'
p3377
VXu Di
p3378
sS'10150520658045819'
p3379
VHtet Aung
p3380
sS'1082387719'
p3381
VTai Jia Ching
p3382
sS'832975103'
p3383
VAlvin Liew
p3384
sS'579544904'
p3385
VAng Jia Xi
p3386
sS'535647927'
p3387
VCaleb Foo
p3388
sS'723302226'
p3389
VWu JingTing
p3390
sS'1014814854'
p3391
VChingyee Chia
p3392
sS'10150520657825819'
p3393
VChao Xu
p3394
sS'601910818'
p3395
VLee Chu Yong Mark
p3396
sS'547022235'
p3397
VJohn Yong
p3398
sS'532944099'
p3399
VYvette Chong
p3400
sS'100001839652713'
p3401
VKoh Hui Qi
p3402
saa(lp3403
S'10150514172487737'
p3404
aS'1325131200'
p3405
a(dp3406
S'600967843'
p3407
VEdwin Liang
p3408
sS'689417797'
p3409
VYip Cheng Wai
p3410
sS'595277736'
p3411
VJun Yi Lee
p3412
sS'1601660809'
p3413
VChunqi Zhu
p3414
sS'100002424577847'
p3415
VKarl Von Frisch
p3416
sS'100001839655043'
p3417
VHo Zhi Ming
p3418
sS'760604218'
p3419
VKliven Tan
p3420
sS'646033821'
p3421
VSeah Chin Ying
p3422
sS'714817110'
p3423
VYap Keng Peng
p3424
sS'758247561'
p3425
VSim Zhen Wei
p3426
sS'572435998'
p3427
VMike Zhang Xunda
p3428
sS'560988346'
p3429
VNg Ke Wei
p3430
sS'647117814'
p3431
VLester Mok
p3432
sS'594083526'
p3433
VFoo Toon Min
p3434
sS'1847916286'
p3435
VKeith Yaow
p3436
sS'716018254'
p3437
VNigel Ng Yingjie
p3438
sS'571895841'
p3439
VTan Yu Xuan
p3440
sS'601910818'
p3441
VLee Chu Yong Mark
p3442
sS'1344728347'
p3443
VErnest Wyatt
p3444
sS'532996691'
p3445
VJonathan Voon
p3446
saa(lp3447
S'10150514172262737'
p3448
aS'1325131200'
p3449
a(dp3450
S'600967843'
p3451
VEdwin Liang
p3452
sS'689417797'
p3453
VYip Cheng Wai
p3454
sS'595277736'
p3455
VJun Yi Lee
p3456
sS'1601660809'
p3457
VChunqi Zhu
p3458
sS'100002424577847'
p3459
VKarl Von Frisch
p3460
sS'100001839655043'
p3461
VHo Zhi Ming
p3462
sS'760604218'
p3463
VKliven Tan
p3464
sS'646033821'
p3465
VSeah Chin Ying
p3466
sS'714817110'
p3467
VYap Keng Peng
p3468
sS'758247561'
p3469
VSim Zhen Wei
p3470
sS'572435998'
p3471
VMike Zhang Xunda
p3472
sS'560988346'
p3473
VNg Ke Wei
p3474
sS'647117814'
p3475
VLester Mok
p3476
sS'594083526'
p3477
VFoo Toon Min
p3478
sS'1847916286'
p3479
VKeith Yaow
p3480
sS'716018254'
p3481
VNigel Ng Yingjie
p3482
sS'571895841'
p3483
VTan Yu Xuan
p3484
sS'601910818'
p3485
VLee Chu Yong Mark
p3486
sS'1344728347'
p3487
VErnest Wyatt
p3488
sS'532996691'
p3489
VJonathan Voon
p3490
saa(lp3491
S'10150588273345119'
p3492
aS'1326430518'
p3493
a(dp3494
S'601910818'
p3495
VLee Chu Yong Mark
p3496
saa(lp3497
S'10150512400254771'
p3498
aS'1325905396'
p3499
a(dp3500
S'669654770'
p3501
VFan Yu Zhen
p3502
sS'736201622'
p3503
VDarren Lum
p3504
sS'1047768460'
p3505
VEvelyn He Xinyi
p3506
sS'601910818'
p3507
VLee Chu Yong Mark
p3508
sS'547022235'
p3509
VJohn Yong
p3510
saa(lp3511
S'10150512400929771'
p3512
aS'1325905422'
p3513
a(dp3514
S'601910818'
p3515
VLee Chu Yong Mark
p3516
sS'1047768460'
p3517
VEvelyn He Xinyi
p3518
saa(lp3519
S'10150512400614771'
p3520
aS'1325905407'
p3521
a(dp3522
S'669654770'
p3523
VFan Yu Zhen
p3524
sS'736201622'
p3525
VDarren Lum
p3526
sS'1047768460'
p3527
VEvelyn He Xinyi
p3528
sS'601910818'
p3529
VLee Chu Yong Mark
p3530
sS'547022235'
p3531
VJohn Yong
p3532
saa(lp3533
S'10150512400509771'
p3534
aS'1325905400'
p3535
a(dp3536
S'669654770'
p3537
VFan Yu Zhen
p3538
sS'736201622'
p3539
VDarren Lum
p3540
sS'1047768460'
p3541
VEvelyn He Xinyi
p3542
sS'601910818'
p3543
VLee Chu Yong Mark
p3544
sS'547022235'
p3545
VJohn Yong
p3546
saa(lp3547
S'10150512400134771'
p3548
aS'1325905392'
p3549
a(dp3550
S'669654770'
p3551
VFan Yu Zhen
p3552
sS'1047768460'
p3553
VEvelyn He Xinyi
p3554
sS'601910818'
p3555
VLee Chu Yong Mark
p3556
sS'547022235'
p3557
VJohn Yong
p3558
saa(lp3559
S'10150512399764771'
p3560
aS'1325905376'
p3561
a(dp3562
S'601910818'
p3563
VLee Chu Yong Mark
p3564
saa(lp3565
S'10150512399714771'
p3566
aS'1325905371'
p3567
a(dp3568
S'601910818'
p3569
VLee Chu Yong Mark
p3570
saa(lp3571
S'10150512399319771'
p3572
aS'1325905346'
p3573
a(dp3574
S'736201622'
p3575
VDarren Lum
p3576
sS'1047768460'
p3577
VEvelyn He Xinyi
p3578
sS'735798259'
p3579
VLeong Zhao Hong
p3580
sS'832975103'
p3581
VAlvin Liew
p3582
sS'669654770'
p3583
VFan Yu Zhen
p3584
sS'601910818'
p3585
VLee Chu Yong Mark
p3586
sS'547022235'
p3587
VJohn Yong
p3588
saa(lp3589
S'2665492830379'
p3590
aS'1325824993'
p3591
a(dp3592
S'1047768460'
p3593
VEvelyn He Xinyi
p3594
sS'100000513474595'
p3595
VTimothy Yap
p3596
sS'832975103'
p3597
VAlvin Liew
p3598
sS'616283047'
p3599
VZheng Yi
p3600
sS'669654770'
p3601
VFan Yu Zhen
p3602
sS'601910818'
p3603
VLee Chu Yong Mark
p3604
saa(lp3605
S'2665495190438'
p3606
aS'1325825029'
p3607
a(dp3608
S'601910818'
p3609
VLee Chu Yong Mark
p3610
sS'832975103'
p3611
VAlvin Liew
p3612
sS'616283047'
p3613
VZheng Yi
p3614
saa(lp3615
S'2665494790428'
p3616
aS'1325825020'
p3617
a(dp3618
S'100000513474595'
p3619
VTimothy Yap
p3620
sS'601910818'
p3621
VLee Chu Yong Mark
p3622
sS'547022235'
p3623
VJohn Yong
p3624
saa(lp3625
S'10150460409856777'
p3626
aS'1325252886'
p3627
a(dp3628
S'736201622'
p3629
VDarren Lum
p3630
sS'1047768460'
p3631
VEvelyn He Xinyi
p3632
sS'735798259'
p3633
VLeong Zhao Hong
p3634
sS'640066776'
p3635
VCao Yun
p3636
sS'669654770'
p3637
VFan Yu Zhen
p3638
sS'601910818'
p3639
VLee Chu Yong Mark
p3640
sS'662111446'
p3641
VLim Chern Yuen
p3642
sS'547022235'
p3643
VJohn Yong
p3644
saa(lp3645
S'10150455503751623'
p3646
aS'1324977623'
p3647
a(dp3648
S'736201622'
p3649
VDarren Lum
p3650
sS'601910818'
p3651
VLee Chu Yong Mark
p3652
sS'1651616676'
p3653
VLi Qizhu
p3654
saa(lp3655
S'10150455502971623'
p3656
aS'1324977594'
p3657
a(dp3658
S'736201622'
p3659
VDarren Lum
p3660
sS'601910818'
p3661
VLee Chu Yong Mark
p3662
saa(lp3663
S'10150455492166623'
p3664
aS'1324976981'
p3665
a(dp3666
S'736201622'
p3667
VDarren Lum
p3668
sS'601910818'
p3669
VLee Chu Yong Mark
p3670
saa(lp3671
S'10150455492101623'
p3672
aS'1324976979'
p3673
a(dp3674
S'601910818'
p3675
VLee Chu Yong Mark
p3676
saa(lp3677
S'10150452600053668'
p3678
aS'1324889290'
p3679
a(dp3680
S'100002424577847'
p3681
VKarl Von Frisch
p3682
sS'646033821'
p3683
VSeah Chin Ying
p3684
sS'724443667'
p3685
VYang Kenneth Lu
p3686
sS'556300118'
p3687
VRachel Koh
p3688
sS'601910818'
p3689
VLee Chu Yong Mark
p3690
sS'674806097'
p3691
VVanice Wong
p3692
sS'575173882'
p3693
VNgo Wei Ze
p3694
saa(lp3695
S'10150452599758668'
p3696
aS'1324889274'
p3697
a(dp3698
S'600967843'
p3699
VEdwin Liang
p3700
sS'100002424577847'
p3701
VKarl Von Frisch
p3702
sS'601910818'
p3703
VLee Chu Yong Mark
p3704
sS'646033821'
p3705
VSeah Chin Ying
p3706
saa(lp3707
S'10150452595908668'
p3708
aS'1324889080'
p3709
a(dp3710
S'724443667'
p3711
VYang Kenneth Lu
p3712
sS'601910818'
p3713
VLee Chu Yong Mark
p3714
saa(lp3715
S'338177989542647'
p3716
aS'1324380210'
p3717
a(dp3718
S'1047768460'
p3719
VEvelyn He Xinyi
p3720
sS'735798259'
p3721
VLeong Zhao Hong
p3722
sS'832975103'
p3723
VAlvin Liew
p3724
sS'616283047'
p3725
VZheng Yi
p3726
sS'669654770'
p3727
VFan Yu Zhen
p3728
sS'601910818'
p3729
VLee Chu Yong Mark
p3730
sS'547022235'
p3731
VJohn Yong
p3732
saa(lp3733
S'338177782876001'
p3734
aS'1324380178'
p3735
a(dp3736
S'1047768460'
p3737
VEvelyn He Xinyi
p3738
sS'745548182'
p3739
VSzeto Kah Keong
p3740
sS'735798259'
p3741
VLeong Zhao Hong
p3742
sS'100000513474595'
p3743
VTimothy Yap
p3744
sS'832975103'
p3745
VAlvin Liew
p3746
sS'616283047'
p3747
VZheng Yi
p3748
sS'669654770'
p3749
VFan Yu Zhen
p3750
sS'601910818'
p3751
VLee Chu Yong Mark
p3752
sS'547022235'
p3753
VJohn Yong
p3754
saa(lp3755
S'338177662876013'
p3756
aS'1324380157'
p3757
a(dp3758
S'1047768460'
p3759
VEvelyn He Xinyi
p3760
sS'745548182'
p3761
VSzeto Kah Keong
p3762
sS'735798259'
p3763
VLeong Zhao Hong
p3764
sS'100000513474595'
p3765
VTimothy Yap
p3766
sS'832975103'
p3767
VAlvin Liew
p3768
sS'616283047'
p3769
VZheng Yi
p3770
sS'669654770'
p3771
VFan Yu Zhen
p3772
sS'601910818'
p3773
VLee Chu Yong Mark
p3774
sS'547022235'
p3775
VJohn Yong
p3776
saa(lp3777
S'338177459542700'
p3778
aS'1324380130'
p3779
a(dp3780
S'1047768460'
p3781
VEvelyn He Xinyi
p3782
sS'745548182'
p3783
VSzeto Kah Keong
p3784
sS'735798259'
p3785
VLeong Zhao Hong
p3786
sS'832975103'
p3787
VAlvin Liew
p3788
sS'616283047'
p3789
VZheng Yi
p3790
sS'601910818'
p3791
VLee Chu Yong Mark
p3792
sS'547022235'
p3793
VJohn Yong
p3794
saa(lp3795
S'338178252875954'
p3796
aS'1324380256'
p3797
a(dp3798
S'601910818'
p3799
VLee Chu Yong Mark
p3800
sS'735798259'
p3801
VLeong Zhao Hong
p3802
saa(lp3803
S'338178199542626'
p3804
aS'1324380249'
p3805
a(dp3806
S'745548182'
p3807
VSzeto Kah Keong
p3808
sS'832975103'
p3809
VAlvin Liew
p3810
sS'616283047'
p3811
VZheng Yi
p3812
sS'669654770'
p3813
VFan Yu Zhen
p3814
sS'601910818'
p3815
VLee Chu Yong Mark
p3816
sS'547022235'
p3817
VJohn Yong
p3818
saa(lp3819
S'338177522876027'
p3820
aS'1324380137'
p3821
a(dp3822
S'735798259'
p3823
VLeong Zhao Hong
p3824
sS'745548182'
p3825
VSzeto Kah Keong
p3826
sS'832975103'
p3827
VAlvin Liew
p3828
sS'616283047'
p3829
VZheng Yi
p3830
sS'601910818'
p3831
VLee Chu Yong Mark
p3832
sS'547022235'
p3833
VJohn Yong
p3834
saa(lp3835
S'338177412876038'
p3836
aS'1324380123'
p3837
a(dp3838
S'601910818'
p3839
VLee Chu Yong Mark
p3840
sS'832975103'
p3841
VAlvin Liew
p3842
saa(lp3843
S'10150474465879771'
p3844
aS'1324373798'
p3845
a(dp3846
S'1047768460'
p3847
VEvelyn He Xinyi
p3848
sS'745548182'
p3849
VSzeto Kah Keong
p3850
sS'735798259'
p3851
VLeong Zhao Hong
p3852
sS'100000513474595'
p3853
VTimothy Yap
p3854
sS'832975103'
p3855
VAlvin Liew
p3856
sS'616283047'
p3857
VZheng Yi
p3858
sS'601910818'
p3859
VLee Chu Yong Mark
p3860
sS'547022235'
p3861
VJohn Yong
p3862
saa(lp3863
S'10150474465974771'
p3864
aS'1324373802'
p3865
a(dp3866
S'1047768460'
p3867
VEvelyn He Xinyi
p3868
sS'735798259'
p3869
VLeong Zhao Hong
p3870
sS'10150474572119771'
p3871
VChao Xu
p3872
sS'745548182'
p3873
VSzeto Kah Keong
p3874
sS'669654770'
p3875
VFan Yu Zhen
p3876
sS'601910818'
p3877
VLee Chu Yong Mark
p3878
sS'547022235'
p3879
VJohn Yong
p3880
saa(lp3881
S'10150474465649771'
p3882
aS'1324373784'
p3883
a(dp3884
S'1047768460'
p3885
VEvelyn He Xinyi
p3886
sS'10150474571669771'
p3887
VChao Xu
p3888
sS'745548182'
p3889
VSzeto Kah Keong
p3890
sS'832975103'
p3891
VAlvin Liew
p3892
sS'616283047'
p3893
VZheng Yi
p3894
sS'669654770'
p3895
VFan Yu Zhen
p3896
sS'601910818'
p3897
VLee Chu Yong Mark
p3898
sS'547022235'
p3899
VJohn Yong
p3900
saa(lp3901
S'10150474465144771'
p3902
aS'1324373746'
p3903
a(dp3904
S'1047768460'
p3905
VEvelyn He Xinyi
p3906
sS'735798259'
p3907
VLeong Zhao Hong
p3908
sS'745548182'
p3909
VSzeto Kah Keong
p3910
sS'832975103'
p3911
VAlvin Liew
p3912
sS'616283047'
p3913
VZheng Yi
p3914
sS'601910818'
p3915
VLee Chu Yong Mark
p3916
saa(lp3917
S'10150474465224771'
p3918
aS'1324373756'
p3919
a(dp3920
S'1047768460'
p3921
VEvelyn He Xinyi
p3922
sS'745548182'
p3923
VSzeto Kah Keong
p3924
sS'10150474571059771'
p3925
VChao Xu
p3926
sS'735798259'
p3927
VLeong Zhao Hong
p3928
sS'832975103'
p3929
VAlvin Liew
p3930
sS'616283047'
p3931
VZheng Yi
p3932
sS'601910818'
p3933
VLee Chu Yong Mark
p3934
sS'547022235'
p3935
VJohn Yong
p3936
saa(lp3937
S'10150474464769771'
p3938
aS'1324373726'
p3939
a(dp3940
S'1047768460'
p3941
VEvelyn He Xinyi
p3942
sS'735798259'
p3943
VLeong Zhao Hong
p3944
sS'100000513474595'
p3945
VTimothy Yap
p3946
sS'745548182'
p3947
VSzeto Kah Keong
p3948
sS'616283047'
p3949
VZheng Yi
p3950
sS'601910818'
p3951
VLee Chu Yong Mark
p3952
sS'547022235'
p3953
VJohn Yong
p3954
saa(lp3955
S'10150474465184771'
p3956
aS'1324373751'
p3957
a(dp3958
S'10150474570584771'
p3959
VChao Xu
p3960
sS'1047768460'
p3961
VEvelyn He Xinyi
p3962
sS'745548182'
p3963
VSzeto Kah Keong
p3964
sS'735798259'
p3965
VLeong Zhao Hong
p3966
sS'832975103'
p3967
VAlvin Liew
p3968
sS'601910818'
p3969
VLee Chu Yong Mark
p3970
sS'547022235'
p3971
VJohn Yong
p3972
saa(lp3973
S'10150474464689771'
p3974
aS'1324373721'
p3975
a(dp3976
S'1047768460'
p3977
VEvelyn He Xinyi
p3978
sS'735798259'
p3979
VLeong Zhao Hong
p3980
sS'100000513474595'
p3981
VTimothy Yap
p3982
sS'745548182'
p3983
VSzeto Kah Keong
p3984
sS'616283047'
p3985
VZheng Yi
p3986
sS'601910818'
p3987
VLee Chu Yong Mark
p3988
sS'547022235'
p3989
VJohn Yong
p3990
saa(lp3991
S'10150474464599771'
p3992
aS'1324373716'
p3993
a(dp3994
S'1047768460'
p3995
VEvelyn He Xinyi
p3996
sS'735798259'
p3997
VLeong Zhao Hong
p3998
sS'100000513474595'
p3999
VTimothy Yap
p4000
sS'745548182'
p4001
VSzeto Kah Keong
p4002
sS'832975103'
p4003
VAlvin Liew
p4004
sS'616283047'
p4005
VZheng Yi
p4006
sS'601910818'
p4007
VLee Chu Yong Mark
p4008
sS'547022235'
p4009
VJohn Yong
p4010
saa(lp4011
S'10150474464479771'
p4012
aS'1324373709'
p4013
a(dp4014
S'1047768460'
p4015
VEvelyn He Xinyi
p4016
sS'735798259'
p4017
VLeong Zhao Hong
p4018
sS'100000513474595'
p4019
VTimothy Yap
p4020
sS'745548182'
p4021
VSzeto Kah Keong
p4022
sS'832975103'
p4023
VAlvin Liew
p4024
sS'616283047'
p4025
VZheng Yi
p4026
sS'601910818'
p4027
VLee Chu Yong Mark
p4028
sS'547022235'
p4029
VJohn Yong
p4030
saa(lp4031
S'10150474464284771'
p4032
aS'1324373699'
p4033
a(dp4034
S'601910818'
p4035
VLee Chu Yong Mark
p4036
saa(lp4037
S'10150474464219771'
p4038
aS'1324373694'
p4039
a(dp4040
S'601910818'
p4041
VLee Chu Yong Mark
p4042
sS'832975103'
p4043
VAlvin Liew
p4044
sS'745548182'
p4045
VSzeto Kah Keong
p4046
sS'616283047'
p4047
VZheng Yi
p4048
saa(lp4049
S'10150474468544771'
p4050
aS'1324373961'
p4051
a(dp4052
S'10150474566264771'
p4053
VChao Xu
p4054
sS'601910818'
p4055
VLee Chu Yong Mark
p4056
sS'547022235'
p4057
VJohn Yong
p4058
saa(lp4059
S'10150474467599771'
p4060
aS'1324373902'
p4061
a(dp4062
S'1047768460'
p4063
VEvelyn He Xinyi
p4064
sS'735798259'
p4065
VLeong Zhao Hong
p4066
sS'100000513474595'
p4067
VTimothy Yap
p4068
sS'745548182'
p4069
VSzeto Kah Keong
p4070
sS'616283047'
p4071
VZheng Yi
p4072
sS'601910818'
p4073
VLee Chu Yong Mark
p4074
sS'547022235'
p4075
VJohn Yong
p4076
saa(lp4077
S'10150474466829771'
p4078
aS'1324373861'
p4079
a(dp4080
S'1047768460'
p4081
VEvelyn He Xinyi
p4082
sS'745548182'
p4083
VSzeto Kah Keong
p4084
sS'100000513474595'
p4085
VTimothy Yap
p4086
sS'832975103'
p4087
VAlvin Liew
p4088
sS'616283047'
p4089
VZheng Yi
p4090
sS'669654770'
p4091
VFan Yu Zhen
p4092
sS'601910818'
p4093
VLee Chu Yong Mark
p4094
sS'547022235'
p4095
VJohn Yong
p4096
saa(lp4097
S'10150474466744771'
p4098
aS'1324373854'
p4099
a(dp4100
S'1047768460'
p4101
VEvelyn He Xinyi
p4102
sS'745548182'
p4103
VSzeto Kah Keong
p4104
sS'100000513474595'
p4105
VTimothy Yap
p4106
sS'832975103'
p4107
VAlvin Liew
p4108
sS'616283047'
p4109
VZheng Yi
p4110
sS'601910818'
p4111
VLee Chu Yong Mark
p4112
sS'547022235'
p4113
VJohn Yong
p4114
saa(lp4115
S'10150474466629771'
p4116
aS'1324373848'
p4117
a(dp4118
S'1047768460'
p4119
VEvelyn He Xinyi
p4120
sS'745548182'
p4121
VSzeto Kah Keong
p4122
sS'735798259'
p4123
VLeong Zhao Hong
p4124
sS'100000513474595'
p4125
VTimothy Yap
p4126
sS'832975103'
p4127
VAlvin Liew
p4128
sS'616283047'
p4129
VZheng Yi
p4130
sS'601910818'
p4131
VLee Chu Yong Mark
p4132
sS'547022235'
p4133
VJohn Yong
p4134
saa(lp4135
S'10150474466529771'
p4136
aS'1324373840'
p4137
a(dp4138
S'1047768460'
p4139
VEvelyn He Xinyi
p4140
sS'745548182'
p4141
VSzeto Kah Keong
p4142
sS'735798259'
p4143
VLeong Zhao Hong
p4144
sS'100000513474595'
p4145
VTimothy Yap
p4146
sS'832975103'
p4147
VAlvin Liew
p4148
sS'616283047'
p4149
VZheng Yi
p4150
sS'601910818'
p4151
VLee Chu Yong Mark
p4152
sS'547022235'
p4153
VJohn Yong
p4154
saa(lp4155
S'10150474466359771'
p4156
aS'1324373828'
p4157
a(dp4158
S'1047768460'
p4159
VEvelyn He Xinyi
p4160
sS'745548182'
p4161
VSzeto Kah Keong
p4162
sS'735798259'
p4163
VLeong Zhao Hong
p4164
sS'100000513474595'
p4165
VTimothy Yap
p4166
sS'832975103'
p4167
VAlvin Liew
p4168
sS'616283047'
p4169
VZheng Yi
p4170
sS'601910818'
p4171
VLee Chu Yong Mark
p4172
sS'547022235'
p4173
VJohn Yong
p4174
saa(lp4175
S'10150474466219771'
p4176
aS'1324373817'
p4177
a(dp4178
S'1047768460'
p4179
VEvelyn He Xinyi
p4180
sS'745548182'
p4181
VSzeto Kah Keong
p4182
sS'735798259'
p4183
VLeong Zhao Hong
p4184
sS'100000513474595'
p4185
VTimothy Yap
p4186
sS'832975103'
p4187
VAlvin Liew
p4188
sS'616283047'
p4189
VZheng Yi
p4190
sS'601910818'
p4191
VLee Chu Yong Mark
p4192
sS'547022235'
p4193
VJohn Yong
p4194
saa(lp4195
S'10150474466079771'
p4196
aS'1324373812'
p4197
a(dp4198
S'1047768460'
p4199
VEvelyn He Xinyi
p4200
sS'745548182'
p4201
VSzeto Kah Keong
p4202
sS'735798259'
p4203
VLeong Zhao Hong
p4204
sS'100000513474595'
p4205
VTimothy Yap
p4206
sS'832975103'
p4207
VAlvin Liew
p4208
sS'616283047'
p4209
VZheng Yi
p4210
sS'669654770'
p4211
VFan Yu Zhen
p4212
sS'601910818'
p4213
VLee Chu Yong Mark
p4214
sS'547022235'
p4215
VJohn Yong
p4216
saa(lp4217
S'2560986737792'
p4218
aS'1324218967'
p4219
a(dp4220
S'601910818'
p4221
VLee Chu Yong Mark
p4222
sS'832975103'
p4223
VAlvin Liew
p4224
sS'735798259'
p4225
VLeong Zhao Hong
p4226
saa(lp4227
S'335638936463219'
p4228
aS'1324038641'
p4229
a(dp4230
S'1047768460'
p4231
VEvelyn He Xinyi
p4232
sS'745548182'
p4233
VSzeto Kah Keong
p4234
sS'735798259'
p4235
VLeong Zhao Hong
p4236
sS'100000513474595'
p4237
VTimothy Yap
p4238
sS'832975103'
p4239
VAlvin Liew
p4240
sS'616283047'
p4241
VZheng Yi
p4242
sS'601910818'
p4243
VLee Chu Yong Mark
p4244
sS'547022235'
p4245
VJohn Yong
p4246
saa(lp4247
S'335638919796554'
p4248
aS'1324038635'
p4249
a(dp4250
S'601910818'
p4251
VLee Chu Yong Mark
p4252
sS'735798259'
p4253
VLeong Zhao Hong
p4254
saa(lp4255
S'335638426463270'
p4256
aS'1324038579'
p4257
a(dp4258
S'1047768460'
p4259
VEvelyn He Xinyi
p4260
sS'745548182'
p4261
VSzeto Kah Keong
p4262
sS'735798259'
p4263
VLeong Zhao Hong
p4264
sS'100000513474595'
p4265
VTimothy Yap
p4266
sS'832975103'
p4267
VAlvin Liew
p4268
sS'616283047'
p4269
VZheng Yi
p4270
sS'601910818'
p4271
VLee Chu Yong Mark
p4272
sS'547022235'
p4273
VJohn Yong
p4274
saa(lp4275
S'335638533129926'
p4276
aS'1324038587'
p4277
a(dp4278
S'1047768460'
p4279
VEvelyn He Xinyi
p4280
sS'735798259'
p4281
VLeong Zhao Hong
p4282
sS'100000513474595'
p4283
VTimothy Yap
p4284
sS'745548182'
p4285
VSzeto Kah Keong
p4286
sS'832975103'
p4287
VAlvin Liew
p4288
sS'616283047'
p4289
VZheng Yi
p4290
sS'601910818'
p4291
VLee Chu Yong Mark
p4292
sS'547022235'
p4293
VJohn Yong
p4294
saa(lp4295
S'335638823129897'
p4296
aS'1324038622'
p4297
a(dp4298
S'1047768460'
p4299
VEvelyn He Xinyi
p4300
sS'745548182'
p4301
VSzeto Kah Keong
p4302
sS'335712369789209'
p4303
Vlong neck monster
p4304
sS'832975103'
p4305
VAlvin Liew
p4306
sS'616283047'
p4307
VZheng Yi
p4308
sS'601910818'
p4309
VLee Chu Yong Mark
p4310
sS'547022235'
p4311
VJohn Yong
p4312
saa(lp4313
S'335638956463217'
p4314
aS'1324038646'
p4315
a(dp4316
S'1047768460'
p4317
VEvelyn He Xinyi
p4318
sS'745548182'
p4319
VSzeto Kah Keong
p4320
sS'735798259'
p4321
VLeong Zhao Hong
p4322
sS'100000513474595'
p4323
VTimothy Yap
p4324
sS'832975103'
p4325
VAlvin Liew
p4326
sS'616283047'
p4327
VZheng Yi
p4328
sS'601910818'
p4329
VLee Chu Yong Mark
p4330
sS'547022235'
p4331
VJohn Yong
p4332
saa(lp4333
S'335639016463211'
p4334
aS'1324038653'
p4335
a(dp4336
S'1047768460'
p4337
VEvelyn He Xinyi
p4338
sS'745548182'
p4339
VSzeto Kah Keong
p4340
sS'735798259'
p4341
VLeong Zhao Hong
p4342
sS'100000513474595'
p4343
VTimothy Yap
p4344
sS'832975103'
p4345
VAlvin Liew
p4346
sS'616283047'
p4347
VZheng Yi
p4348
sS'601910818'
p4349
VLee Chu Yong Mark
p4350
sS'547022235'
p4351
VJohn Yong
p4352
saa(lp4353
S'193861424038009'
p4354
aS'1323874349'
p4355
a(dp4356
S'646033821'
p4357
VSeah Chin Ying
p4358
sS'556300118'
p4359
VRachel Koh
p4360
sS'601910818'
p4361
VLee Chu Yong Mark
p4362
sS'674806097'
p4363
VVanice Wong
p4364
sS'724443667'
p4365
VYang Kenneth Lu
p4366
saa(lp4367
S'193861187371366'
p4368
aS'1323874335'
p4369
a(dp4370
S'600967843'
p4371
VEdwin Liang
p4372
sS'601910818'
p4373
VLee Chu Yong Mark
p4374
sS'646033821'
p4375
VSeah Chin Ying
p4376
saa(lp4377
S'10150410176281447'
p4378
aS'1323840143'
p4379
a(dp4380
S'736201622'
p4381
VDarren Lum
p4382
sS'1047768460'
p4383
VEvelyn He Xinyi
p4384
sS'735798259'
p4385
VLeong Zhao Hong
p4386
sS'832975103'
p4387
VAlvin Liew
p4388
sS'10150410194866447'
p4389
VHtet Aung
p4390
sS'10150410195031447'
p4391
VChan Yarn Kit
p4392
sS'669654770'
p4393
VFan Yu Zhen
p4394
sS'601910818'
p4395
VLee Chu Yong Mark
p4396
sS'662111446'
p4397
VLim Chern Yuen
p4398
saa(lp4399
S'10150410173951447'
p4400
aS'1323840035'
p4401
a(dp4402
S'736201622'
p4403
VDarren Lum
p4404
sS'1047768460'
p4405
VEvelyn He Xinyi
p4406
sS'735798259'
p4407
VLeong Zhao Hong
p4408
sS'1651616676'
p4409
VLi Qizhu
p4410
sS'10150410190961447'
p4411
VChan Yarn Kit
p4412
sS'669654770'
p4413
VFan Yu Zhen
p4414
sS'601910818'
p4415
VLee Chu Yong Mark
p4416
sS'662111446'
p4417
VLim Chern Yuen
p4418
saa(lp4419
S'10150410172336447'
p4420
aS'1323839969'
p4421
a(dp4422
S'601910818'
p4423
VLee Chu Yong Mark
p4424
sS'662111446'
p4425
VLim Chern Yuen
p4426
sS'10150410184621447'
p4427
VChan Yarn Kit
p4428
saa(lp4429
S'10150523117830119'
p4430
aS'1323787729'
p4431
a(dp4432
S'556300118'
p4433
VRachel Koh
p4434
sS'601910818'
p4435
VLee Chu Yong Mark
p4436
sS'10150523125420119'
p4437
Vvalley
p4438
saa.