(lp0
(lp1
S'10153141187322605'
p2
aS'1425481905'
p3
a(dp4
S'714876677'
p5
VTan Wei Xiang
p6
sS'522283005'
p7
VCollin Wan
p8
sS'100000123073934'
p9
VLee Kao Shing Alex
p10
sS'619837604'
p11
VClive Isaac Aw
p12
sS'787140095'
p13
VDenise Eng
p14
sS'685609876'
p15
VTeresa Purnomo
p16
sS'533348190'
p17
VChan Bingjie
p18
sS'100000003405878'
p19
VJay Kritchai Vutipongsatorn
p20
sS'601910818'
p21
VLee Chu Yong Mark
p22
sS'100004018856838'
p23
VAng Jia Ming
p24
saa(lp25
S'965500826794937'
p26
aS'1425226729'
p27
a(dp28
S'601910818'
p29
VLee Chu Yong Mark
p30
sS'100000050865573'
p31
VAdeline Loo
p32
saa(lp33
S'965486536796366'
p34
aS'1425226352'
p35
a(dp36
S'601910818'
p37
VLee Chu Yong Mark
p38
sS'533348190'
p39
VChan Bingjie
p40
sS'100000050865573'
p41
VAdeline Loo
p42
saa(lp43
S'938774872800866'
p44
aS'1421014015'
p45
a(dp46
S'601910818'
p47
VLee Chu Yong Mark
p48
sS'100000050865573'
p49
VAdeline Loo
p50
saa(lp51
S'10155101095625051'
p52
aS'1420939270'
p53
a(dp54
S'100000956056616'
p55
VWong Siow Pin
p56
sS'100000050865573'
p57
VAdeline Loo
p58
sS'533759822'
p59
VTimothy Issac Low
p60
sS'598209810'
p61
VTravis Chia
p62
sS'804202275'
p63
VSzewei Foo
p64
sS'577907916'
p65
VSyakir Kamal
p66
sS'600850050'
p67
VJerome Tan
p68
sS'686691025'
p69
VPaxton Chia Wei Xuan
p70
sS'578588413'
p71
VTan Hong Wei
p72
sS'1763221972'
p73
VRajesh Kumar Rai
p74
sS'601910818'
p75
VLee Chu Yong Mark
p76
sS'548717576'
p77
VEng Zi Guang
p78
saa(lp79
S'10155101071510051'
p80
aS'1420938726'
p81
a(dp82
S'100000956056616'
p83
VWong Siow Pin
p84
sS'100000050865573'
p85
VAdeline Loo
p86
sS'533759822'
p87
VTimothy Issac Low
p88
sS'578359736'
p89
VCheah Pei Zhen
p90
sS'598209810'
p91
VTravis Chia
p92
sS'804202275'
p93
VSzewei Foo
p94
sS'577907916'
p95
VSyakir Kamal
p96
sS'600850050'
p97
VJerome Tan
p98
sS'1602644235'
p99
VJing Yi Chan
p100
sS'686691025'
p101
VPaxton Chia Wei Xuan
p102
sS'578588413'
p103
VTan Hong Wei
p104
sS'1763221972'
p105
VRajesh Kumar Rai
p106
sS'601910818'
p107
VLee Chu Yong Mark
p108
sS'548717576'
p109
VEng Zi Guang
p110
saa(lp111
S'10155101071435051'
p112
aS'1420938725'
p113
a(dp114
S'100000956056616'
p115
VWong Siow Pin
p116
sS'100000050865573'
p117
VAdeline Loo
p118
sS'533759822'
p119
VTimothy Issac Low
p120
sS'578359736'
p121
VCheah Pei Zhen
p122
sS'598209810'
p123
VTravis Chia
p124
sS'804202275'
p125
VSzewei Foo
p126
sS'577907916'
p127
VSyakir Kamal
p128
sS'600850050'
p129
VJerome Tan
p130
sS'1602644235'
p131
VJing Yi Chan
p132
sS'686691025'
p133
VPaxton Chia Wei Xuan
p134
sS'578588413'
p135
VTan Hong Wei
p136
sS'602140710'
p137
VGoh Yu Chen
p138
sS'1763221972'
p139
VRajesh Kumar Rai
p140
sS'601910818'
p141
VLee Chu Yong Mark
p142
sS'548717576'
p143
VEng Zi Guang
p144
saa(lp145
S'10152664792718160'
p146
aS'1420205017'
p147
a(dp148
S'531868159'
p149
VMelissa Chan
p150
sS'601910818'
p151
VLee Chu Yong Mark
p152
sS'616283047'
p153
VZheng Yi
p154
saa(lp155
S'10152664792563160'
p156
aS'1420205016'
p157
a(dp158
S'531868159'
p159
VMelissa Chan
p160
sS'601910818'
p161
VLee Chu Yong Mark
p162
sS'832975103'
p163
VAlvin Liew
p164
sS'616283047'
p165
VZheng Yi
p166
saa(lp167
S'10152664792463160'
p168
aS'1420205015'
p169
a(dp170
S'531868159'
p171
VMelissa Chan
p172
sS'601910818'
p173
VLee Chu Yong Mark
p174
sS'832975103'
p175
VAlvin Liew
p176
sS'616283047'
p177
VZheng Yi
p178
saa(lp179
S'10152664792193160'
p180
aS'1420205014'
p181
a(dp182
S'531868159'
p183
VMelissa Chan
p184
sS'601910818'
p185
VLee Chu Yong Mark
p186
sS'832975103'
p187
VAlvin Liew
p188
sS'616283047'
p189
VZheng Yi
p190
saa(lp191
S'10152646326648160'
p192
aS'1419975501'
p193
a(dp194
S'601910818'
p195
VLee Chu Yong Mark
p196
sS'832975103'
p197
VAlvin Liew
p198
sS'616283047'
p199
VZheng Yi
p200
saa(lp201
S'10152637283018160'
p202
aS'1419689436'
p203
a(dp204
S'531868159'
p205
VMelissa Chan
p206
sS'832975103'
p207
VAlvin Liew
p208
sS'601910818'
p209
VLee Chu Yong Mark
p210
sS'616283047'
p211
VZheng Yi
p212
saa(lp213
S'10152637279638160'
p214
aS'1419689325'
p215
a(dp216
S'531868159'
p217
VMelissa Chan
p218
sS'832975103'
p219
VAlvin Liew
p220
sS'601910818'
p221
VLee Chu Yong Mark
p222
sS'616283047'
p223
VZheng Yi
p224
saa(lp225
S'10152630814008160'
p226
aS'1419456297'
p227
a(dp228
S'531868159'
p229
VMelissa Chan
p230
sS'601910818'
p231
VLee Chu Yong Mark
p232
sS'832975103'
p233
VAlvin Liew
p234
sS'616283047'
p235
VZheng Yi
p236
saa(lp237
S'10152628277838160'
p238
aS'1419352007'
p239
a(dp240
S'531868159'
p241
VMelissa Chan
p242
sS'601910818'
p243
VLee Chu Yong Mark
p244
sS'832975103'
p245
VAlvin Liew
p246
sS'616283047'
p247
VZheng Yi
p248
saa(lp249
S'10152623977618160'
p250
aS'1419189960'
p251
a(dp252
S'531868159'
p253
VMelissa Chan
p254
sS'832975103'
p255
VAlvin Liew
p256
sS'601910818'
p257
VLee Chu Yong Mark
p258
sS'616283047'
p259
VZheng Yi
p260
saa(lp261
S'918187591526261'
p262
aS'1418589554'
p263
a(dp264
S'601910818'
p265
VLee Chu Yong Mark
p266
sS'100000397025614'
p267
VKat Rina
p268
sS'100000050865573'
p269
VAdeline Loo
p270
saa(lp271
S'918187578192929'
p272
aS'1418589554'
p273
a(dp274
S'601910818'
p275
VLee Chu Yong Mark
p276
sS'100000397025614'
p277
VKat Rina
p278
sS'100000050865573'
p279
VAdeline Loo
p280
saa(lp281
S'10152741220539823'
p282
aS'1418083224'
p283
a(dp284
S'100000956056616'
p285
VWong Siow Pin
p286
sS'598209810'
p287
VTravis Chia
p288
sS'533759822'
p289
VTimothy Issac Low
p290
sS'600850050'
p291
VJerome Tan
p292
sS'686691025'
p293
VPaxton Chia Wei Xuan
p294
sS'754446316'
p295
VIvan Tee
p296
sS'100003182806731'
p297
VMartin Chan
p298
sS'601910818'
p299
VLee Chu Yong Mark
p300
sS'548717576'
p301
VEng Zi Guang
p302
saa(lp303
S'10152741220534823'
p304
aS'1418083224'
p305
a(dp306
S'100000956056616'
p307
VWong Siow Pin
p308
sS'598209810'
p309
VTravis Chia
p310
sS'533759822'
p311
VTimothy Issac Low
p312
sS'600850050'
p313
VJerome Tan
p314
sS'686691025'
p315
VPaxton Chia Wei Xuan
p316
sS'754446316'
p317
VIvan Tee
p318
sS'100003182806731'
p319
VMartin Chan
p320
sS'601910818'
p321
VLee Chu Yong Mark
p322
sS'548717576'
p323
VEng Zi Guang
p324
saa(lp325
S'10203510334903154'
p326
aS'1418044222'
p327
a(dp328
S'100000135040004'
p329
VYui Sasaki
p330
sS'1390907511'
p331
VWen Wen Low
p332
sS'685609876'
p333
VTeresa Purnomo
p334
sS'536589913'
p335
VErnest Huang Zhixian
p336
sS'1357473831'
p337
VWan Ting
p338
sS'100000170816858'
p339
VLim Shi Teng
p340
sS'601910818'
p341
VLee Chu Yong Mark
p342
saa(lp343
S'10152615551313191'
p344
aS'1417886400'
p345
a(dp346
S'601910818'
p347
VLee Chu Yong Mark
p348
sS'536589913'
p349
VErnest Huang Zhixian
p350
saa(lp351
S'10154915910585051'
p352
aS'1417896283'
p353
a(dp354
S'787140095'
p355
VDenise Eng
p356
sS'533348190'
p357
VChan Bingjie
p358
sS'601910818'
p359
VLee Chu Yong Mark
p360
sS'754446316'
p361
VIvan Tee
p362
sS'600850050'
p363
VJerome Tan
p364
saa(lp365
S'910854648926222'
p366
aS'1417359275'
p367
a(dp368
S'601910818'
p369
VLee Chu Yong Mark
p370
sS'533759822'
p371
VTimothy Issac Low
p372
sS'100000050865573'
p373
VAdeline Loo
p374
saa(lp375
S'10205276390451297'
p376
aS'1417037122'
p377
a(dp378
S'522283005'
p379
VCollin Wan
p380
sS'1315745572'
p381
VJohannes Tiong
p382
sS'100001856322915'
p383
VChew Hou Ng
p384
sS'1652833929'
p385
VJohnathan Mei
p386
sS'100000170816858'
p387
VLim Shi Teng
p388
sS'100000135040004'
p389
VYui Sasaki
p390
sS'100003406882948'
p391
VErica Goh
p392
sS'606773550'
p393
VLee Wan Ting
p394
sS'100000265713602'
p395
VKuan Tzuo Weiit
p396
sS'1290151602'
p397
VWee Kee Tiew
p398
sS'685609876'
p399
VTeresa Purnomo
p400
sS'536589913'
p401
VErnest Huang Zhixian
p402
sS'601910818'
p403
VLee Chu Yong Mark
p404
sS'100005871673805'
p405
VBrianna Chang
p406
sS'1317248540'
p407
VChoy Chuok Ying
p408
sS'1390907511'
p409
VWen Wen Low
p410
sS'1357473831'
p411
VWan Ting
p412
sS'1293233390'
p413
VJeremy Tan
p414
sS'709740422'
p415
VJannie Khoo
p416
sS'1032490691'
p417
VJason Tingalingading
p418
sS'100000204543452'
p419
VJoshua Moh
p420
sS'687643301'
p421
VCarolyn Seow
p422
sS'100000013757021'
p423
VQian Grace
p424
sS'1427750645'
p425
VZhong Yao
p426
sS'100000105633006'
p427
VZheng Wei
p428
sS'100001064705688'
p429
VChong Sue Yi
p430
saa(lp431
S'986800988001060'
p432
aS'1416686776'
p433
a(dp434
S'522283005'
p435
VCollin Wan
p436
sS'1390907511'
p437
VWen Wen Low
p438
sS'685609876'
p439
VTeresa Purnomo
p440
sS'536589913'
p441
VErnest Huang Zhixian
p442
sS'1357473831'
p443
VWan Ting
p444
sS'1652833929'
p445
VJohnathan Mei
p446
sS'601910818'
p447
VLee Chu Yong Mark
p448
saa(lp449
S'904045532940467'
p450
aS'1416266771'
p451
a(dp452
S'787140095'
p453
VDenise Eng
p454
sS'601910818'
p455
VLee Chu Yong Mark
p456
sS'533759822'
p457
VTimothy Issac Low
p458
sS'100000050865573'
p459
VAdeline Loo
p460
saa(lp461
S'904045516273802'
p462
aS'1416266771'
p463
a(dp464
S'787140095'
p465
VDenise Eng
p466
sS'601910818'
p467
VLee Chu Yong Mark
p468
sS'533759822'
p469
VTimothy Issac Low
p470
sS'100000050865573'
p471
VAdeline Loo
p472
saa(lp473
S'10152931446459124'
p474
aS'1415998099'
p475
a(dp476
S'601910818'
p477
VLee Chu Yong Mark
p478
sS'100001417791201'
p479
VDaniele Incerti
p480
sS'1357473831'
p481
VWan Ting
p482
sS'685609876'
p483
VTeresa Purnomo
p484
sS'536589913'
p485
VErnest Huang Zhixian
p486
sS'100000078355808'
p487
VEdric Ramirez-Valdez
p488
sS'1652833929'
p489
VJohnathan Mei
p490
sS'652199123'
p491
VSalome Hui
p492
saa(lp493
S'10205348348493459'
p494
aS'1415448288'
p495
a(dp496
S'1357473831'
p497
VWan Ting
p498
sS'1652833929'
p499
VJohnathan Mei
p500
sS'601910818'
p501
VLee Chu Yong Mark
p502
sS'536589913'
p503
VErnest Huang Zhixian
p504
sS'522283005'
p505
VCollin Wan
p506
saa(lp507
S'10152589233455819'
p508
aS'1414886664'
p509
a(dp510
S'100000956056616'
p511
VWong Siow Pin
p512
sS'1169326278'
p513
VRahul Sibal
p514
sS'756027892'
p515
VDarren Tan
p516
sS'714876677'
p517
VTan Wei Xiang
p518
sS'685609876'
p519
VTeresa Purnomo
p520
sS'565054704'
p521
VLincoln Ang
p522
sS'1580101802'
p523
VLo Jun Hong
p524
sS'100003118006891'
p525
VRachel Tan Xin En
p526
sS'601910818'
p527
VLee Chu Yong Mark
p528
saa(lp529
S'4797665677216'
p530
aS'1414167389'
p531
a(dp532
S'686691025'
p533
VPaxton Chia Wei Xuan
p534
sS'601910818'
p535
VLee Chu Yong Mark
p536
sS'533759822'
p537
VTimothy Issac Low
p538
saa(lp539
S'890244580987229'
p540
aS'1414083264'
p541
a(dp542
S'100003182806731'
p543
VMartin Chan
p544
sS'1763221972'
p545
VRajesh Kumar Rai
p546
sS'601910818'
p547
VLee Chu Yong Mark
p548
sS'598209810'
p549
VTravis Chia
p550
sS'100000050865573'
p551
VAdeline Loo
p552
saa(lp553
S'4794395315459'
p554
aS'1414062592'
p555
a(dp556
S'533759822'
p557
VTimothy Issac Low
p558
sS'100000050865573'
p559
VAdeline Loo
p560
sS'600850050'
p561
VJerome Tan
p562
sS'642459102'
p563
VChoo Jia Guang
p564
sS'548717576'
p565
VEng Zi Guang
p566
sS'100003182806731'
p567
VMartin Chan
p568
sS'1763221972'
p569
VRajesh Kumar Rai
p570
sS'601910818'
p571
VLee Chu Yong Mark
p572
sS'598209810'
p573
VTravis Chia
p574
saa(lp575
S'886443854700635'
p576
aS'1413503531'
p577
a(dp578
S'601910818'
p579
VLee Chu Yong Mark
p580
sS'100000050865573'
p581
VAdeline Loo
p582
saa(lp583
S'886198108058543'
p584
aS'1413462159'
p585
a(dp586
S'601910818'
p587
VLee Chu Yong Mark
p588
sS'533759822'
p589
VTimothy Issac Low
p590
sS'100000050865573'
p591
VAdeline Loo
p592
saa(lp593
S'10154732595880051'
p594
aS'1413321916'
p595
a(dp596
S'787140095'
p597
VDenise Eng
p598
sS'578359736'
p599
VCheah Pei Zhen
p600
sS'601910818'
p601
VLee Chu Yong Mark
p602
sS'600850050'
p603
VJerome Tan
p604
sS'100000050865573'
p605
VAdeline Loo
p606
saa(lp607
S'10154732595245051'
p608
aS'1413321916'
p609
a(dp610
S'598209810'
p611
VTravis Chia
p612
sS'1095244393'
p613
VChua Zhi Ming Benjamin
p614
sS'100000050865573'
p615
VAdeline Loo
p616
sS'600850050'
p617
VJerome Tan
p618
sS'686691025'
p619
VPaxton Chia Wei Xuan
p620
sS'601910818'
p621
VLee Chu Yong Mark
p622
saa(lp623
S'10154732594895051'
p624
aS'1413321915'
p625
a(dp626
S'100000956056616'
p627
VWong Siow Pin
p628
sS'598209810'
p629
VTravis Chia
p630
sS'1095244393'
p631
VChua Zhi Ming Benjamin
p632
sS'100000050865573'
p633
VAdeline Loo
p634
sS'577907916'
p635
VSyakir Kamal
p636
sS'600850050'
p637
VJerome Tan
p638
sS'1602644235'
p639
VJing Yi Chan
p640
sS'686691025'
p641
VPaxton Chia Wei Xuan
p642
sS'642459102'
p643
VChoo Jia Guang
p644
sS'548717576'
p645
VEng Zi Guang
p646
sS'601910818'
p647
VLee Chu Yong Mark
p648
sS'533759822'
p649
VTimothy Issac Low
p650
saa(lp651
S'10205148221490409'
p652
aS'1413142321'
p653
a(dp654
S'100000135040004'
p655
VYui Sasaki
p656
sS'522283005'
p657
VCollin Wan
p658
sS'601910818'
p659
VLee Chu Yong Mark
p660
sS'685609876'
p661
VTeresa Purnomo
p662
sS'536589913'
p663
VErnest Huang Zhixian
p664
sS'1652833929'
p665
VJohnathan Mei
p666
sS'652199123'
p667
VSalome Hui
p668
saa(lp669
S'10152542993732917'
p670
aS'1413103174'
p671
a(dp672
S'100000956056616'
p673
VWong Siow Pin
p674
sS'598209810'
p675
VTravis Chia
p676
sS'578359736'
p677
VCheah Pei Zhen
p678
sS'533759822'
p679
VTimothy Issac Low
p680
sS'100000050865573'
p681
VAdeline Loo
p682
sS'577907916'
p683
VSyakir Kamal
p684
sS'600850050'
p685
VJerome Tan
p686
sS'787140095'
p687
VDenise Eng
p688
sS'1602644235'
p689
VJing Yi Chan
p690
sS'686691025'
p691
VPaxton Chia Wei Xuan
p692
sS'514857315'
p693
VQamarul Arifin
p694
sS'642459102'
p695
VChoo Jia Guang
p696
sS'100003182806731'
p697
VMartin Chan
p698
sS'601910818'
p699
VLee Chu Yong Mark
p700
sS'548717576'
p701
VEng Zi Guang
p702
saa(lp703
S'10152542993637917'
p704
aS'1413103170'
p705
a(dp706
S'598209810'
p707
VTravis Chia
p708
sS'577907916'
p709
VSyakir Kamal
p710
sS'1602644235'
p711
VJing Yi Chan
p712
sS'642459102'
p713
VChoo Jia Guang
p714
sS'601910818'
p715
VLee Chu Yong Mark
p716
sS'533759822'
p717
VTimothy Issac Low
p718
saa(lp719
S'10152542993947917'
p720
aS'1413103178'
p721
a(dp722
S'100000956056616'
p723
VWong Siow Pin
p724
sS'598209810'
p725
VTravis Chia
p726
sS'578359736'
p727
VCheah Pei Zhen
p728
sS'533759822'
p729
VTimothy Issac Low
p730
sS'100000050865573'
p731
VAdeline Loo
p732
sS'577907916'
p733
VSyakir Kamal
p734
sS'600850050'
p735
VJerome Tan
p736
sS'787140095'
p737
VDenise Eng
p738
sS'1602644235'
p739
VJing Yi Chan
p740
sS'686691025'
p741
VPaxton Chia Wei Xuan
p742
sS'514857315'
p743
VQamarul Arifin
p744
sS'642459102'
p745
VChoo Jia Guang
p746
sS'100003182806731'
p747
VMartin Chan
p748
sS'601910818'
p749
VLee Chu Yong Mark
p750
sS'548717576'
p751
VEng Zi Guang
p752
saa(lp753
S'10154715025205051'
p754
aS'1413037169'
p755
a(dp756
S'100000956056616'
p757
VWong Siow Pin
p758
sS'598209810'
p759
VTravis Chia
p760
sS'578359736'
p761
VCheah Pei Zhen
p762
sS'533759822'
p763
VTimothy Issac Low
p764
sS'100000050865573'
p765
VAdeline Loo
p766
sS'577907916'
p767
VSyakir Kamal
p768
sS'600850050'
p769
VJerome Tan
p770
sS'787140095'
p771
VDenise Eng
p772
sS'1602644235'
p773
VJing Yi Chan
p774
sS'686691025'
p775
VPaxton Chia Wei Xuan
p776
sS'514857315'
p777
VQamarul Arifin
p778
sS'642459102'
p779
VChoo Jia Guang
p780
sS'100003508117860'
p781
VShayna Kam
p782
sS'100003182806731'
p783
VMartin Chan
p784
sS'1763221972'
p785
VRajesh Kumar Rai
p786
sS'601910818'
p787
VLee Chu Yong Mark
p788
sS'100004018856838'
p789
VAng Jia Ming
p790
sS'1095244393'
p791
VChua Zhi Ming Benjamin
p792
sS'548717576'
p793
VEng Zi Guang
p794
saa(lp795
S'10154629569300051'
p796
aS'1411232358'
p797
a(dp798
S'100000956056616'
p799
VWong Siow Pin
p800
sS'100000050865573'
p801
VAdeline Loo
p802
sS'598209810'
p803
VTravis Chia
p804
sS'578359736'
p805
VCheah Pei Zhen
p806
sS'804202275'
p807
VSzewei Foo
p808
sS'600850050'
p809
VJerome Tan
p810
sS'686691025'
p811
VPaxton Chia Wei Xuan
p812
sS'565018647'
p813
VKon Hunn Leung
p814
sS'642459102'
p815
VChoo Jia Guang
p816
sS'602140710'
p817
VGoh Yu Chen
p818
sS'601910818'
p819
VLee Chu Yong Mark
p820
sS'647113050'
p821
VJia Le Lim
p822
sS'579544904'
p823
VAng Jia Xi
p824
sS'533759822'
p825
VTimothy Issac Low
p826
saa(lp827
S'10152564577029823'
p828
aS'1410877280'
p829
a(dp830
S'578588413'
p831
VTan Hong Wei
p832
sS'533759822'
p833
VTimothy Issac Low
p834
sS'100000050865573'
p835
VAdeline Loo
p836
sS'577907916'
p837
VSyakir Kamal
p838
sS'600850050'
p839
VJerome Tan
p840
sS'100000956056616'
p841
VWong Siow Pin
p842
sS'1602644235'
p843
VJing Yi Chan
p844
sS'642459102'
p845
VChoo Jia Guang
p846
sS'548717576'
p847
VEng Zi Guang
p848
sS'100003508117860'
p849
VShayna Kam
p850
sS'100003182806731'
p851
VMartin Chan
p852
sS'601910818'
p853
VLee Chu Yong Mark
p854
sS'100004018856838'
p855
VAng Jia Ming
p856
sS'598209810'
p857
VTravis Chia
p858
saa(lp859
S'10152461097870819'
p860
aS'1409413172'
p861
a(dp862
S'736201622'
p863
VDarren Lum
p864
sS'548517812'
p865
VOng MurFei
p866
sS'745548182'
p867
VSzeto Kah Keong
p868
sS'616283047'
p869
VZheng Yi
p870
sS'646142505'
p871
VShawn Ng
p872
sS'669654770'
p873
VFan Yu Zhen
p874
sS'601910818'
p875
VLee Chu Yong Mark
p876
sS'662111446'
p877
VLim Chern Yuen
p878
saa(lp879
S'4448902636313'
p880
aS'1408372433'
p881
a(dp882
S'533759822'
p883
VTimothy Issac Low
p884
sS'100000050865573'
p885
VAdeline Loo
p886
sS'577907916'
p887
VSyakir Kamal
p888
sS'787140095'
p889
VDenise Eng
p890
sS'100003508117860'
p891
VShayna Kam
p892
sS'601910818'
p893
VLee Chu Yong Mark
p894
saa(lp895
S'4448800633763'
p896
aS'1408371437'
p897
a(dp898
S'533759822'
p899
VTimothy Issac Low
p900
sS'597103934'
p901
VChew Zhi Han Gary
p902
sS'804202275'
p903
VSzewei Foo
p904
sS'1602644235'
p905
VJing Yi Chan
p906
sS'686691025'
p907
VPaxton Chia Wei Xuan
p908
sS'601910818'
p909
VLee Chu Yong Mark
p910
sS'548717576'
p911
VEng Zi Guang
p912
saa(lp913
S'4448904116350'
p914
aS'1408372449'
p915
a(dp916
S'597103934'
p917
VChew Zhi Han Gary
p918
sS'578359736'
p919
VCheah Pei Zhen
p920
sS'100000050865573'
p921
VAdeline Loo
p922
sS'577907916'
p923
VSyakir Kamal
p924
sS'600850050'
p925
VJerome Tan
p926
sS'787140095'
p927
VDenise Eng
p928
sS'1602644235'
p929
VJing Yi Chan
p930
sS'100003182806731'
p931
VMartin Chan
p932
sS'601910818'
p933
VLee Chu Yong Mark
p934
sS'100004018856838'
p935
VAng Jia Ming
p936
saa(lp937
S'4448800393757'
p938
aS'1408371432'
p939
a(dp940
S'100000956056616'
p941
VWong Siow Pin
p942
sS'533759822'
p943
VTimothy Issac Low
p944
sS'686691025'
p945
VPaxton Chia Wei Xuan
p946
sS'787140095'
p947
VDenise Eng
p948
sS'514857315'
p949
VQamarul Arifin
p950
sS'601910818'
p951
VLee Chu Yong Mark
p952
sS'100004018856838'
p953
VAng Jia Ming
p954
saa(lp955
S'4448799633738'
p956
aS'1408371419'
p957
a(dp958
S'100000956056616'
p959
VWong Siow Pin
p960
sS'533759822'
p961
VTimothy Issac Low
p962
sS'597103934'
p963
VChew Zhi Han Gary
p964
sS'100000050865573'
p965
VAdeline Loo
p966
sS'577907916'
p967
VSyakir Kamal
p968
sS'578588413'
p969
VTan Hong Wei
p970
sS'787140095'
p971
VDenise Eng
p972
sS'686691025'
p973
VPaxton Chia Wei Xuan
p974
sS'514857315'
p975
VQamarul Arifin
p976
sS'1095244393'
p977
VChua Zhi Ming Benjamin
p978
sS'548717576'
p979
VEng Zi Guang
p980
sS'1763221972'
p981
VRajesh Kumar Rai
p982
sS'601910818'
p983
VLee Chu Yong Mark
p984
sS'100004018856838'
p985
VAng Jia Ming
p986
sS'598209810'
p987
VTravis Chia
p988
saa(lp989
S'4448797473684'
p990
aS'1408371387'
p991
a(dp992
S'601910818'
p993
VLee Chu Yong Mark
p994
sS'600850050'
p995
VJerome Tan
p996
saa(lp997
S'4448790033498'
p998
aS'1408371290'
p999
a(dp1000
S'804202275'
p1001
VSzewei Foo
p1002
sS'601910818'
p1003
VLee Chu Yong Mark
p1004
sS'533759822'
p1005
VTimothy Issac Low
p1006
saa(lp1007
S'4448786193402'
p1008
aS'1408371241'
p1009
a(dp1010
S'100003182806731'
p1011
VMartin Chan
p1012
sS'601910818'
p1013
VLee Chu Yong Mark
p1014
sS'577907916'
p1015
VSyakir Kamal
p1016
sS'533759822'
p1017
VTimothy Issac Low
p1018
sS'100004018856838'
p1019
VAng Jia Ming
p1020
saa(lp1021
S'4448783433333'
p1022
aS'1408371205'
p1023
a(dp1024
S'100000956056616'
p1025
VWong Siow Pin
p1026
sS'601910818'
p1027
VLee Chu Yong Mark
p1028
sS'598209810'
p1029
VTravis Chia
p1030
sS'100000050865573'
p1031
VAdeline Loo
p1032
sS'577907916'
p1033
VSyakir Kamal
p1034
sS'600850050'
p1035
VJerome Tan
p1036
sS'686691025'
p1037
VPaxton Chia Wei Xuan
p1038
sS'514857315'
p1039
VQamarul Arifin
p1040
sS'1763221972'
p1041
VRajesh Kumar Rai
p1042
sS'548717576'
p1043
VEng Zi Guang
p1044
sS'100004018856838'
p1045
VAng Jia Ming
p1046
sS'533759822'
p1047
VTimothy Issac Low
p1048
saa(lp1049
S'4448804033848'
p1050
aS'1408371477'
p1051
a(dp1052
S'100000956056616'
p1053
VWong Siow Pin
p1054
sS'601910818'
p1055
VLee Chu Yong Mark
p1056
sS'598209810'
p1057
VTravis Chia
p1058
sS'597103934'
p1059
VChew Zhi Han Gary
p1060
sS'533759822'
p1061
VTimothy Issac Low
p1062
sS'100000050865573'
p1063
VAdeline Loo
p1064
sS'577907916'
p1065
VSyakir Kamal
p1066
sS'787140095'
p1067
VDenise Eng
p1068
sS'686691025'
p1069
VPaxton Chia Wei Xuan
p1070
sS'548717576'
p1071
VEng Zi Guang
p1072
sS'100004018856838'
p1073
VAng Jia Ming
p1074
sS'1095244393'
p1075
VChua Zhi Ming Benjamin
p1076
saa(lp1077
S'4448802953821'
p1078
aS'1408371472'
p1079
a(dp1080
S'100000956056616'
p1081
VWong Siow Pin
p1082
sS'533759822'
p1083
VTimothy Issac Low
p1084
sS'100000050865573'
p1085
VAdeline Loo
p1086
sS'787140095'
p1087
VDenise Eng
p1088
sS'686691025'
p1089
VPaxton Chia Wei Xuan
p1090
sS'642459102'
p1091
VChoo Jia Guang
p1092
sS'100003182806731'
p1093
VMartin Chan
p1094
sS'1763221972'
p1095
VRajesh Kumar Rai
p1096
sS'601910818'
p1097
VLee Chu Yong Mark
p1098
sS'100004018856838'
p1099
VAng Jia Ming
p1100
sS'598209810'
p1101
VTravis Chia
p1102
saa(lp1103
S'4448801193777'
p1104
aS'1408371441'
p1105
a(dp1106
S'100000956056616'
p1107
VWong Siow Pin
p1108
sS'598209810'
p1109
VTravis Chia
p1110
sS'1095244393'
p1111
VChua Zhi Ming Benjamin
p1112
sS'100000050865573'
p1113
VAdeline Loo
p1114
sS'577907916'
p1115
VSyakir Kamal
p1116
sS'578588413'
p1117
VTan Hong Wei
p1118
sS'787140095'
p1119
VDenise Eng
p1120
sS'1763221972'
p1121
VRajesh Kumar Rai
p1122
sS'601910818'
p1123
VLee Chu Yong Mark
p1124
sS'100004018856838'
p1125
VAng Jia Ming
p1126
sS'533759822'
p1127
VTimothy Issac Low
p1128
saa(lp1129
S'4448888195952'
p1130
aS'1408372285'
p1131
a(dp1132
S'601910818'
p1133
VLee Chu Yong Mark
p1134
sS'642459102'
p1135
VChoo Jia Guang
p1136
saa(lp1137
S'4448926316905'
p1138
aS'1408372695'
p1139
a(dp1140
S'601910818'
p1141
VLee Chu Yong Mark
p1142
sS'578359736'
p1143
VCheah Pei Zhen
p1144
saa(lp1145
S'4448919556736'
p1146
aS'1408372607'
p1147
a(dp1148
S'601910818'
p1149
VLee Chu Yong Mark
p1150
sS'533759822'
p1151
VTimothy Issac Low
p1152
sS'600850050'
p1153
VJerome Tan
p1154
saa(lp1155
S'4448918276704'
p1156
aS'1408372597'
p1157
a(dp1158
S'601910818'
p1159
VLee Chu Yong Mark
p1160
sS'533759822'
p1161
VTimothy Issac Low
p1162
sS'100000050865573'
p1163
VAdeline Loo
p1164
sS'600850050'
p1165
VJerome Tan
p1166
saa(lp1167
S'4448917716690'
p1168
aS'1408372592'
p1169
a(dp1170
S'601910818'
p1171
VLee Chu Yong Mark
p1172
sS'533759822'
p1173
VTimothy Issac Low
p1174
sS'100000050865573'
p1175
VAdeline Loo
p1176
sS'600850050'
p1177
VJerome Tan
p1178
saa(lp1179
S'4448917276679'
p1180
aS'1408372588'
p1181
a(dp1182
S'601910818'
p1183
VLee Chu Yong Mark
p1184
sS'533759822'
p1185
VTimothy Issac Low
p1186
saa(lp1187
S'4448843034823'
p1188
aS'1408371907'
p1189
a(dp1190
S'607596842'
p1191
VTan Wei Jie
p1192
sS'804202275'
p1193
VSzewei Foo
p1194
sS'597103934'
p1195
VChew Zhi Han Gary
p1196
sS'578359736'
p1197
VCheah Pei Zhen
p1198
sS'577907916'
p1199
VSyakir Kamal
p1200
sS'598209810'
p1201
VTravis Chia
p1202
sS'100000050865573'
p1203
VAdeline Loo
p1204
sS'100000956056616'
p1205
VWong Siow Pin
p1206
sS'578588413'
p1207
VTan Hong Wei
p1208
sS'1701872031'
p1209
VHazel Wang
p1210
sS'600850050'
p1211
VJerome Tan
p1212
sS'787140095'
p1213
VDenise Eng
p1214
sS'1602644235'
p1215
VJing Yi Chan
p1216
sS'686691025'
p1217
VPaxton Chia Wei Xuan
p1218
sS'514857315'
p1219
VQamarul Arifin
p1220
sS'642459102'
p1221
VChoo Jia Guang
p1222
sS'548717576'
p1223
VEng Zi Guang
p1224
sS'1763221972'
p1225
VRajesh Kumar Rai
p1226
sS'601910818'
p1227
VLee Chu Yong Mark
p1228
sS'100004018856838'
p1229
VAng Jia Ming
p1230
sS'533759822'
p1231
VTimothy Issac Low
p1232
saa(lp1233
S'4448810674014'
p1234
aS'1408348980'
p1235
a(dp1236
S'607596842'
p1237
VTan Wei Jie
p1238
sS'804202275'
p1239
VSzewei Foo
p1240
sS'1602644235'
p1241
VJing Yi Chan
p1242
sS'642459102'
p1243
VChoo Jia Guang
p1244
sS'100003182806731'
p1245
VMartin Chan
p1246
sS'601910818'
p1247
VLee Chu Yong Mark
p1248
sS'100004018856838'
p1249
VAng Jia Ming
p1250
sS'548717576'
p1251
VEng Zi Guang
p1252
saa(lp1253
S'4448809593987'
p1254
aS'1408371574'
p1255
a(dp1256
S'598209810'
p1257
VTravis Chia
p1258
sS'578359736'
p1259
VCheah Pei Zhen
p1260
sS'100000050865573'
p1261
VAdeline Loo
p1262
sS'1095244393'
p1263
VChua Zhi Ming Benjamin
p1264
sS'601910818'
p1265
VLee Chu Yong Mark
p1266
sS'533759822'
p1267
VTimothy Issac Low
p1268
saa(lp1269
S'4448787633438'
p1270
aS'1408371251'
p1271
a(dp1272
S'100000956056616'
p1273
VWong Siow Pin
p1274
sS'598209810'
p1275
VTravis Chia
p1276
sS'533759822'
p1277
VTimothy Issac Low
p1278
sS'577907916'
p1279
VSyakir Kamal
p1280
sS'552565257'
p1281
VGao Yulin
p1282
sS'642459102'
p1283
VChoo Jia Guang
p1284
sS'1763221972'
p1285
VRajesh Kumar Rai
p1286
sS'601910818'
p1287
VLee Chu Yong Mark
p1288
sS'100004018856838'
p1289
VAng Jia Ming
p1290
sS'548717576'
p1291
VEng Zi Guang
p1292
saa(lp1293
S'4448786953421'
p1294
aS'1408371245'
p1295
a(dp1296
S'601910818'
p1297
VLee Chu Yong Mark
p1298
sS'598209810'
p1299
VTravis Chia
p1300
sS'100004018856838'
p1301
VAng Jia Ming
p1302
saa(lp1303
S'4448785233378'
p1304
aS'1408371229'
p1305
a(dp1306
S'514857315'
p1307
VQamarul Arifin
p1308
sS'601910818'
p1309
VLee Chu Yong Mark
p1310
sS'642459102'
p1311
VChoo Jia Guang
p1312
sS'533759822'
p1313
VTimothy Issac Low
p1314
sS'552565257'
p1315
VGao Yulin
p1316
saa(lp1317
S'4448782113300'
p1318
aS'1408371189'
p1319
a(dp1320
S'601910818'
p1321
VLee Chu Yong Mark
p1322
sS'577907916'
p1323
VSyakir Kamal
p1324
sS'578359736'
p1325
VCheah Pei Zhen
p1326
sS'1095244393'
p1327
VChua Zhi Ming Benjamin
p1328
saa(lp1329
S'4448781433283'
p1330
aS'1408371181'
p1331
a(dp1332
S'686691025'
p1333
VPaxton Chia Wei Xuan
p1334
sS'601910818'
p1335
VLee Chu Yong Mark
p1336
sS'577907916'
p1337
VSyakir Kamal
p1338
sS'598209810'
p1339
VTravis Chia
p1340
saa(lp1341
S'4448780153251'
p1342
aS'1408371160'
p1343
a(dp1344
S'578359736'
p1345
VCheah Pei Zhen
p1346
sS'1095244393'
p1347
VChua Zhi Ming Benjamin
p1348
sS'598209810'
p1349
VTravis Chia
p1350
sS'577907916'
p1351
VSyakir Kamal
p1352
sS'686691025'
p1353
VPaxton Chia Wei Xuan
p1354
sS'1763221972'
p1355
VRajesh Kumar Rai
p1356
sS'601910818'
p1357
VLee Chu Yong Mark
p1358
sS'552565257'
p1359
VGao Yulin
p1360
sS'533759822'
p1361
VTimothy Issac Low
p1362
saa(lp1363
S'4448779513235'
p1364
aS'1408371152'
p1365
a(dp1366
S'100000956056616'
p1367
VWong Siow Pin
p1368
sS'578359736'
p1369
VCheah Pei Zhen
p1370
sS'1095244393'
p1371
VChua Zhi Ming Benjamin
p1372
sS'100000050865573'
p1373
VAdeline Loo
p1374
sS'577907916'
p1375
VSyakir Kamal
p1376
sS'578588413'
p1377
VTan Hong Wei
p1378
sS'600850050'
p1379
VJerome Tan
p1380
sS'686691025'
p1381
VPaxton Chia Wei Xuan
p1382
sS'100003182806731'
p1383
VMartin Chan
p1384
sS'1763221972'
p1385
VRajesh Kumar Rai
p1386
sS'601910818'
p1387
VLee Chu Yong Mark
p1388
sS'533759822'
p1389
VTimothy Issac Low
p1390
saa(lp1391
S'4448778713215'
p1392
aS'1408371147'
p1393
a(dp1394
S'533759822'
p1395
VTimothy Issac Low
p1396
sS'577907916'
p1397
VSyakir Kamal
p1398
sS'1763221972'
p1399
VRajesh Kumar Rai
p1400
sS'601910818'
p1401
VLee Chu Yong Mark
p1402
sS'552565257'
p1403
VGao Yulin
p1404
sS'100004018856838'
p1405
VAng Jia Ming
p1406
saa(lp1407
S'4448775633138'
p1408
aS'1408371110'
p1409
a(dp1410
S'533759822'
p1411
VTimothy Issac Low
p1412
sS'578359736'
p1413
VCheah Pei Zhen
p1414
sS'577907916'
p1415
VSyakir Kamal
p1416
sS'600850050'
p1417
VJerome Tan
p1418
sS'601910818'
p1419
VLee Chu Yong Mark
p1420
sS'548717576'
p1421
VEng Zi Guang
p1422
saa(lp1423
S'4448774433108'
p1424
aS'1408371093'
p1425
a(dp1426
S'100000956056616'
p1427
VWong Siow Pin
p1428
sS'601910818'
p1429
VLee Chu Yong Mark
p1430
sS'577907916'
p1431
VSyakir Kamal
p1432
sS'514857315'
p1433
VQamarul Arifin
p1434
sS'533759822'
p1435
VTimothy Issac Low
p1436
saa(lp1437
S'4448753712590'
p1438
aS'1408370838'
p1439
a(dp1440
S'578588413'
p1441
VTan Hong Wei
p1442
sS'601910818'
p1443
VLee Chu Yong Mark
p1444
sS'1763221972'
p1445
VRajesh Kumar Rai
p1446
sS'100000050865573'
p1447
VAdeline Loo
p1448
sS'1095244393'
p1449
VChua Zhi Ming Benjamin
p1450
saa(lp1451
S'4448740992272'
p1452
aS'1408370699'
p1453
a(dp1454
S'601910818'
p1455
VLee Chu Yong Mark
p1456
sS'597879074'
p1457
VSheryl Lee
p1458
saa(lp1459
S'10154495671535051'
p1460
aS'1408277725'
p1461
a(dp1462
S'600850050'
p1463
VJerome Tan
p1464
sS'607596842'
p1465
VTan Wei Jie
p1466
sS'1602644235'
p1467
VJing Yi Chan
p1468
sS'100003508117860'
p1469
VShayna Kam
p1470
sS'533759822'
p1471
VTimothy Issac Low
p1472
sS'804202275'
p1473
VSzewei Foo
p1474
sS'686691025'
p1475
VPaxton Chia Wei Xuan
p1476
sS'514857315'
p1477
VQamarul Arifin
p1478
sS'601910818'
p1479
VLee Chu Yong Mark
p1480
sS'100004018856838'
p1481
VAng Jia Ming
p1482
sS'100000956056616'
p1483
VWong Siow Pin
p1484
sS'100000050865573'
p1485
VAdeline Loo
p1486
sS'1701872031'
p1487
VHazel Wang
p1488
sS'787140095'
p1489
VDenise Eng
p1490
sS'1763221972'
p1491
VRajesh Kumar Rai
p1492
sS'598209810'
p1493
VTravis Chia
p1494
sS'578588413'
p1495
VTan Hong Wei
p1496
sS'597103934'
p1497
VChew Zhi Han Gary
p1498
sS'578359736'
p1499
VCheah Pei Zhen
p1500
sS'577907916'
p1501
VSyakir Kamal
p1502
sS'642459102'
p1503
VChoo Jia Guang
p1504
sS'548717576'
p1505
VEng Zi Guang
p1506
saa(lp1507
S'10152315151333543'
p1508
aS'1408353011'
p1509
a(dp1510
S'620793178'
p1511
VLow Zuo Kai Nicholas
p1512
sS'765426739'
p1513
VMeri Tan
p1514
sS'1661407117'
p1515
VAndrew Baey
p1516
sS'597103934'
p1517
VChew Zhi Han Gary
p1518
sS'616511687'
p1519
VBen Yong
p1520
sS'533497091'
p1521
VJia Ying Goh
p1522
sS'533348190'
p1523
VChan Bingjie
p1524
sS'1444524256'
p1525
VNicholas Chia
p1526
sS'100003182806731'
p1527
VMartin Chan
p1528
sS'601910818'
p1529
VLee Chu Yong Mark
p1530
sS'843850400'
p1531
VWei Long
p1532
saa(lp1533
S'10204310880281922'
p1534
aS'1407640907'
p1535
a(dp1536
S'600967843'
p1537
VEdwin Liang
p1538
sS'1526516271'
p1539
VWong Yi Ren
p1540
sS'601910818'
p1541
VLee Chu Yong Mark
p1542
sS'1542153685'
p1543
VHelen Segara
p1544
sS'100000481243801'
p1545
VTeng Meow Kheng
p1546
sS'600281044'
p1547
VShuMing Tay
p1548
sS'1078533688'
p1549
VLee Kwan Ter
p1550
sS'724679667'
p1551
VCalwin Lim
p1552
sS'735119712'
p1553
VJoey Yeung
p1554
sS'1203267230'
p1555
VRoy Matthias Goh
p1556
sS'564348949'
p1557
VJonathan Tjioe
p1558
sS'585538203'
p1559
VEthan Aw
p1560
sS'594078037'
p1561
VSiHeng Yeo
p1562
saa(lp1563
S'10204310880241921'
p1564
aS'1407640906'
p1565
a(dp1566
S'600967843'
p1567
VEdwin Liang
p1568
sS'1526516271'
p1569
VWong Yi Ren
p1570
sS'601910818'
p1571
VLee Chu Yong Mark
p1572
sS'1542153685'
p1573
VHelen Segara
p1574
sS'100000481243801'
p1575
VTeng Meow Kheng
p1576
sS'600281044'
p1577
VShuMing Tay
p1578
sS'1078533688'
p1579
VLee Kwan Ter
p1580
sS'724679667'
p1581
VCalwin Lim
p1582
sS'735119712'
p1583
VJoey Yeung
p1584
sS'1203267230'
p1585
VRoy Matthias Goh
p1586
sS'564348949'
p1587
VJonathan Tjioe
p1588
sS'585538203'
p1589
VEthan Aw
p1590
sS'599561823'
p1591
VLouis Tan
p1592
sS'594078037'
p1593
VSiHeng Yeo
p1594
saa(lp1595
S'10204310784119518'
p1596
aS'1407639633'
p1597
a(dp1598
S'735119712'
p1599
VJoey Yeung
p1600
sS'1203267230'
p1601
VRoy Matthias Goh
p1602
sS'601910818'
p1603
VLee Chu Yong Mark
p1604
saa(lp1605
S'10204310736438326'
p1606
aS'1407639087'
p1607
a(dp1608
S'600967843'
p1609
VEdwin Liang
p1610
sS'1526516271'
p1611
VWong Yi Ren
p1612
sS'601910818'
p1613
VLee Chu Yong Mark
p1614
sS'1542153685'
p1615
VHelen Segara
p1616
sS'100000481243801'
p1617
VTeng Meow Kheng
p1618
sS'600281044'
p1619
VShuMing Tay
p1620
sS'1078533688'
p1621
VLee Kwan Ter
p1622
sS'724679667'
p1623
VCalwin Lim
p1624
sS'735119712'
p1625
VJoey Yeung
p1626
sS'1203267230'
p1627
VRoy Matthias Goh
p1628
sS'564348949'
p1629
VJonathan Tjioe
p1630
sS'585538203'
p1631
VEthan Aw
p1632
sS'594078037'
p1633
VSiHeng Yeo
p1634
saa(lp1635
S'10204310735718308'
p1636
aS'1407639084'
p1637
a(dp1638
S'600967843'
p1639
VEdwin Liang
p1640
sS'1526516271'
p1641
VWong Yi Ren
p1642
sS'601910818'
p1643
VLee Chu Yong Mark
p1644
sS'1542153685'
p1645
VHelen Segara
p1646
sS'100000481243801'
p1647
VTeng Meow Kheng
p1648
sS'600281044'
p1649
VShuMing Tay
p1650
sS'1078533688'
p1651
VLee Kwan Ter
p1652
sS'724679667'
p1653
VCalwin Lim
p1654
sS'735119712'
p1655
VJoey Yeung
p1656
sS'1203267230'
p1657
VRoy Matthias Goh
p1658
sS'564348949'
p1659
VJonathan Tjioe
p1660
sS'585538203'
p1661
VEthan Aw
p1662
sS'599561823'
p1663
VLouis Tan
p1664
sS'594078037'
p1665
VSiHeng Yeo
p1666
saa(lp1667
S'10204310735398300'
p1668
aS'1407639079'
p1669
a(dp1670
S'600967843'
p1671
VEdwin Liang
p1672
sS'1526516271'
p1673
VWong Yi Ren
p1674
sS'601910818'
p1675
VLee Chu Yong Mark
p1676
sS'1542153685'
p1677
VHelen Segara
p1678
sS'100000481243801'
p1679
VTeng Meow Kheng
p1680
sS'600281044'
p1681
VShuMing Tay
p1682
sS'1078533688'
p1683
VLee Kwan Ter
p1684
sS'724679667'
p1685
VCalwin Lim
p1686
sS'735119712'
p1687
VJoey Yeung
p1688
sS'1203267230'
p1689
VRoy Matthias Goh
p1690
sS'564348949'
p1691
VJonathan Tjioe
p1692
sS'585538203'
p1693
VEthan Aw
p1694
sS'599561823'
p1695
VLouis Tan
p1696
sS'594078037'
p1697
VSiHeng Yeo
p1698
saa(lp1699
S'10204310732318223'
p1700
aS'1407639040'
p1701
a(dp1702
S'600967843'
p1703
VEdwin Liang
p1704
sS'543022349'
p1705
VAvan Kwek
p1706
sS'1526516271'
p1707
VWong Yi Ren
p1708
sS'601910818'
p1709
VLee Chu Yong Mark
p1710
sS'1542153685'
p1711
VHelen Segara
p1712
sS'100000481243801'
p1713
VTeng Meow Kheng
p1714
sS'600281044'
p1715
VShuMing Tay
p1716
sS'1078533688'
p1717
VLee Kwan Ter
p1718
sS'724679667'
p1719
VCalwin Lim
p1720
sS'735119712'
p1721
VJoey Yeung
p1722
sS'1203267230'
p1723
VRoy Matthias Goh
p1724
sS'564348949'
p1725
VJonathan Tjioe
p1726
sS'585538203'
p1727
VEthan Aw
p1728
sS'599561823'
p1729
VLouis Tan
p1730
sS'594078037'
p1731
VSiHeng Yeo
p1732
saa(lp1733
S'10204310732078217'
p1734
aS'1407639038'
p1735
a(dp1736
S'600967843'
p1737
VEdwin Liang
p1738
sS'1526516271'
p1739
VWong Yi Ren
p1740
sS'601910818'
p1741
VLee Chu Yong Mark
p1742
sS'1542153685'
p1743
VHelen Segara
p1744
sS'100000481243801'
p1745
VTeng Meow Kheng
p1746
sS'600281044'
p1747
VShuMing Tay
p1748
sS'1078533688'
p1749
VLee Kwan Ter
p1750
sS'724679667'
p1751
VCalwin Lim
p1752
sS'735119712'
p1753
VJoey Yeung
p1754
sS'1203267230'
p1755
VRoy Matthias Goh
p1756
sS'564348949'
p1757
VJonathan Tjioe
p1758
sS'585538203'
p1759
VEthan Aw
p1760
sS'599561823'
p1761
VLouis Tan
p1762
sS'594078037'
p1763
VSiHeng Yeo
p1764
saa(lp1765
S'10204310728958139'
p1766
aS'1407639007'
p1767
a(dp1768
S'600967843'
p1769
VEdwin Liang
p1770
sS'1526516271'
p1771
VWong Yi Ren
p1772
sS'601910818'
p1773
VLee Chu Yong Mark
p1774
sS'1542153685'
p1775
VHelen Segara
p1776
sS'100000481243801'
p1777
VTeng Meow Kheng
p1778
sS'600281044'
p1779
VShuMing Tay
p1780
sS'1078533688'
p1781
VLee Kwan Ter
p1782
sS'724679667'
p1783
VCalwin Lim
p1784
sS'735119712'
p1785
VJoey Yeung
p1786
sS'1203267230'
p1787
VRoy Matthias Goh
p1788
sS'564348949'
p1789
VJonathan Tjioe
p1790
sS'585538203'
p1791
VEthan Aw
p1792
sS'599561823'
p1793
VLouis Tan
p1794
sS'594078037'
p1795
VSiHeng Yeo
p1796
saa(lp1797
S'10204310699797410'
p1798
aS'1407638616'
p1799
a(dp1800
S'600967843'
p1801
VEdwin Liang
p1802
sS'601910818'
p1803
VLee Chu Yong Mark
p1804
saa(lp1805
S'10204310693077242'
p1806
aS'1407638535'
p1807
a(dp1808
S'600967843'
p1809
VEdwin Liang
p1810
sS'601910818'
p1811
VLee Chu Yong Mark
p1812
saa(lp1813
S'10204310689197145'
p1814
aS'1407638462'
p1815
a(dp1816
S'600967843'
p1817
VEdwin Liang
p1818
sS'601910818'
p1819
VLee Chu Yong Mark
p1820
sS'724679667'
p1821
VCalwin Lim
p1822
saa(lp1823
S'10204310688957139'
p1824
aS'1407638460'
p1825
a(dp1826
S'600967843'
p1827
VEdwin Liang
p1828
sS'601910818'
p1829
VLee Chu Yong Mark
p1830
sS'724679667'
p1831
VCalwin Lim
p1832
saa(lp1833
S'10204310774559279'
p1834
aS'1407639525'
p1835
a(dp1836
S'600967843'
p1837
VEdwin Liang
p1838
sS'1203267230'
p1839
VRoy Matthias Goh
p1840
sS'601910818'
p1841
VLee Chu Yong Mark
p1842
sS'1078533688'
p1843
VLee Kwan Ter
p1844
saa(lp1845
S'10204310754678782'
p1846
aS'1407639278'
p1847
a(dp1848
S'600967843'
p1849
VEdwin Liang
p1850
sS'735119712'
p1851
VJoey Yeung
p1852
sS'1203267230'
p1853
VRoy Matthias Goh
p1854
sS'601910818'
p1855
VLee Chu Yong Mark
p1856
sS'600281044'
p1857
VShuMing Tay
p1858
saa(lp1859
S'10204310727398100'
p1860
aS'1407638997'
p1861
a(dp1862
S'600967843'
p1863
VEdwin Liang
p1864
sS'564348949'
p1865
VJonathan Tjioe
p1866
sS'1078533688'
p1867
VLee Kwan Ter
p1868
sS'724679667'
p1869
VCalwin Lim
p1870
sS'601910818'
p1871
VLee Chu Yong Mark
p1872
sS'594078037'
p1873
VSiHeng Yeo
p1874
saa(lp1875
S'10204310727238096'
p1876
aS'1407638996'
p1877
a(dp1878
S'543022349'
p1879
VAvan Kwek
p1880
sS'1542153685'
p1881
VHelen Segara
p1882
sS'600281044'
p1883
VShuMing Tay
p1884
sS'1078533688'
p1885
VLee Kwan Ter
p1886
sS'724679667'
p1887
VCalwin Lim
p1888
sS'735119712'
p1889
VJoey Yeung
p1890
sS'601910818'
p1891
VLee Chu Yong Mark
p1892
sS'599561823'
p1893
VLouis Tan
p1894
sS'594078037'
p1895
VSiHeng Yeo
p1896
saa(lp1897
S'10204310725958064'
p1898
aS'1407638973'
p1899
a(dp1900
S'543022349'
p1901
VAvan Kwek
p1902
sS'564348949'
p1903
VJonathan Tjioe
p1904
sS'1542153685'
p1905
VHelen Segara
p1906
sS'1078533688'
p1907
VLee Kwan Ter
p1908
sS'735119712'
p1909
VJoey Yeung
p1910
sS'601910818'
p1911
VLee Chu Yong Mark
p1912
sS'594078037'
p1913
VSiHeng Yeo
p1914
saa(lp1915
S'10204310724118018'
p1916
aS'1407638948'
p1917
a(dp1918
S'600967843'
p1919
VEdwin Liang
p1920
sS'601910818'
p1921
VLee Chu Yong Mark
p1922
sS'100000481243801'
p1923
VTeng Meow Kheng
p1924
saa(lp1925
S'10204310722477977'
p1926
aS'1407638926'
p1927
a(dp1928
S'600967843'
p1929
VEdwin Liang
p1930
sS'601910818'
p1931
VLee Chu Yong Mark
p1932
sS'100000481243801'
p1933
VTeng Meow Kheng
p1934
saa(lp1935
S'10204310718917888'
p1936
aS'1407638869'
p1937
a(dp1938
S'600967843'
p1939
VEdwin Liang
p1940
sS'1203267230'
p1941
VRoy Matthias Goh
p1942
sS'601910818'
p1943
VLee Chu Yong Mark
p1944
sS'100000481243801'
p1945
VTeng Meow Kheng
p1946
saa(lp1947
S'10204310713237746'
p1948
aS'1407638783'
p1949
a(dp1950
S'600967843'
p1951
VEdwin Liang
p1952
sS'543022349'
p1953
VAvan Kwek
p1954
sS'1542153685'
p1955
VHelen Segara
p1956
sS'600281044'
p1957
VShuMing Tay
p1958
sS'1203267230'
p1959
VRoy Matthias Goh
p1960
sS'601910818'
p1961
VLee Chu Yong Mark
p1962
saa(lp1963
S'10204310692557229'
p1964
aS'1407638531'
p1965
a(dp1966
S'600967843'
p1967
VEdwin Liang
p1968
sS'601910818'
p1969
VLee Chu Yong Mark
p1970
sS'599561823'
p1971
VLouis Tan
p1972
saa(lp1973
S'10204310690637181'
p1974
aS'1407638482'
p1975
a(dp1976
S'600967843'
p1977
VEdwin Liang
p1978
sS'601910818'
p1979
VLee Chu Yong Mark
p1980
sS'599561823'
p1981
VLouis Tan
p1982
saa(lp1983
S'10204310687157094'
p1984
aS'1407638433'
p1985
a(dp1986
S'600967843'
p1987
VEdwin Liang
p1988
sS'601910818'
p1989
VLee Chu Yong Mark
p1990
sS'599561823'
p1991
VLouis Tan
p1992
sS'724679667'
p1993
VCalwin Lim
p1994
saa(lp1995
S'10204310685197045'
p1996
aS'1407638416'
p1997
a(dp1998
S'600967843'
p1999
VEdwin Liang
p2000
sS'601910818'
p2001
VLee Chu Yong Mark
p2002
sS'724679667'
p2003
VCalwin Lim
p2004
saa(lp2005
S'10204310679076892'
p2006
aS'1407638358'
p2007
a(dp2008
S'600967843'
p2009
VEdwin Liang
p2010
sS'1203267230'
p2011
VRoy Matthias Goh
p2012
sS'601910818'
p2013
VLee Chu Yong Mark
p2014
sS'724679667'
p2015
VCalwin Lim
p2016
saa(lp2017
S'10204310675796810'
p2018
aS'1407638301'
p2019
a(dp2020
S'600967843'
p2021
VEdwin Liang
p2022
sS'543022349'
p2023
VAvan Kwek
p2024
sS'601910818'
p2025
VLee Chu Yong Mark
p2026
sS'599561823'
p2027
VLouis Tan
p2028
saa(lp2029
S'10204310671556704'
p2030
aS'1407638259'
p2031
a(dp2032
S'600967843'
p2033
VEdwin Liang
p2034
sS'1203267230'
p2035
VRoy Matthias Goh
p2036
sS'601910818'
p2037
VLee Chu Yong Mark
p2038
sS'724679667'
p2039
VCalwin Lim
p2040
saa(lp2041
S'10204310670996690'
p2042
aS'1407638254'
p2043
a(dp2044
S'600967843'
p2045
VEdwin Liang
p2046
sS'1203267230'
p2047
VRoy Matthias Goh
p2048
sS'601910818'
p2049
VLee Chu Yong Mark
p2050
sS'724679667'
p2051
VCalwin Lim
p2052
saa(lp2053
S'10204310666156569'
p2054
aS'1407638172'
p2055
a(dp2056
S'600967843'
p2057
VEdwin Liang
p2058
sS'1203267230'
p2059
VRoy Matthias Goh
p2060
sS'601910818'
p2061
VLee Chu Yong Mark
p2062
sS'599561823'
p2063
VLouis Tan
p2064
sS'724679667'
p2065
VCalwin Lim
p2066
saa(lp2067
S'10204310663236496'
p2068
aS'1407638132'
p2069
a(dp2070
S'600967843'
p2071
VEdwin Liang
p2072
sS'543022349'
p2073
VAvan Kwek
p2074
sS'100000481243801'
p2075
VTeng Meow Kheng
p2076
sS'724679667'
p2077
VCalwin Lim
p2078
sS'1203267230'
p2079
VRoy Matthias Goh
p2080
sS'601910818'
p2081
VLee Chu Yong Mark
p2082
sS'599561823'
p2083
VLouis Tan
p2084
saa(lp2085
S'10204310660956439'
p2086
aS'1407638096'
p2087
a(dp2088
S'600967843'
p2089
VEdwin Liang
p2090
sS'601910818'
p2091
VLee Chu Yong Mark
p2092
sS'100000481243801'
p2093
VTeng Meow Kheng
p2094
sS'724679667'
p2095
VCalwin Lim
p2096
saa(lp2097
S'10204310658836386'
p2098
aS'1407638061'
p2099
a(dp2100
S'601910818'
p2101
VLee Chu Yong Mark
p2102
sS'724679667'
p2103
VCalwin Lim
p2104
sS'599561823'
p2105
VLouis Tan
p2106
saa(lp2107
S'10204310658436376'
p2108
aS'1407638052'
p2109
a(dp2110
S'735119712'
p2111
VJoey Yeung
p2112
sS'601910818'
p2113
VLee Chu Yong Mark
p2114
sS'724679667'
p2115
VCalwin Lim
p2116
sS'599561823'
p2117
VLouis Tan
p2118
saa(lp2119
S'10204310656916338'
p2120
aS'1407638029'
p2121
a(dp2122
S'735119712'
p2123
VJoey Yeung
p2124
sS'601910818'
p2125
VLee Chu Yong Mark
p2126
saa(lp2127
S'10152305003256824'
p2128
aS'1407514818'
p2129
a(dp2130
S'601910818'
p2131
VLee Chu Yong Mark
p2132
sS'724679667'
p2133
VCalwin Lim
p2134
saa(lp2135
S'10152586590448374'
p2136
aS'1407164054'
p2137
a(dp2138
S'600967843'
p2139
VEdwin Liang
p2140
sS'595277736'
p2141
VJun Yi Lee
p2142
sS'1601660809'
p2143
VChunqi Zhu
p2144
sS'758247561'
p2145
VSim Zhen Wei
p2146
sS'594083526'
p2147
VFoo Toon Min
p2148
sS'716018254'
p2149
VNigel Ng Yingjie
p2150
sS'601910818'
p2151
VLee Chu Yong Mark
p2152
sS'547022235'
p2153
VJohn Yong
p2154
sS'532996691'
p2155
VJonathan Voon
p2156
saa(lp2157
S'10154360490225104'
p2158
aS'1406390731'
p2159
a(dp2160
S'601458805'
p2161
VNg Lihui
p2162
sS'601910818'
p2163
VLee Chu Yong Mark
p2164
sS'832975103'
p2165
VAlvin Liew
p2166
sS'512034022'
p2167
VTee Tze Yong
p2168
saa(lp2169
S'10154360474610104'
p2170
aS'1406390368'
p2171
a(dp2172
S'601458805'
p2173
VNg Lihui
p2174
sS'601910818'
p2175
VLee Chu Yong Mark
p2176
sS'832975103'
p2177
VAlvin Liew
p2178
sS'512034022'
p2179
VTee Tze Yong
p2180
saa(lp2181
S'10154360474500104'
p2182
aS'1406390365'
p2183
a(dp2184
S'601458805'
p2185
VNg Lihui
p2186
sS'601910818'
p2187
VLee Chu Yong Mark
p2188
sS'832975103'
p2189
VAlvin Liew
p2190
sS'512034022'
p2191
VTee Tze Yong
p2192
sS'631201810'
p2193
VNg Zhi Yi
p2194
saa(lp2195
S'10152427639630119'
p2196
aS'1400772817'
p2197
a(dp2198
S'840583373'
p2199
VMX Chai
p2200
sS'601910818'
p2201
VLee Chu Yong Mark
p2202
sS'646033821'
p2203
VSeah Chin Ying
p2204
saa(lp2205
S'10152224805115819'
p2206
aS'1399047137'
p2207
a(dp2208
S'600967843'
p2209
VEdwin Liang
p2210
sS'556300118'
p2211
VRachel Koh
p2212
sS'601910818'
p2213
VLee Chu Yong Mark
p2214
sS'840583373'
p2215
VMX Chai
p2216
sS'724443667'
p2217
VYang Kenneth Lu
p2218
saa(lp2219
S'10152091582470819'
p2220
aS'1393158095'
p2221
a(dp2222
S'601910818'
p2223
VLee Chu Yong Mark
p2224
sS'824635446'
p2225
VCharlie Atethechocolatefactory
p2226
sS'1553374108'
p2227
VBernie Lee
p2228
sS'675528106'
p2229
VSheena Seng
p2230
saa(lp2231
S'10152223099713374'
p2232
aS'1393099200'
p2233
a(dp2234
S'600967843'
p2235
VEdwin Liang
p2236
sS'689417797'
p2237
VYip Cheng Wai
p2238
sS'595277736'
p2239
VJun Yi Lee
p2240
sS'655422545'
p2241
VZhou Kai
p2242
sS'760604218'
p2243
VKliven Tan
p2244
sS'840583373'
p2245
VMX Chai
p2246
sS'1601660809'
p2247
VChunqi Zhu
p2248
sS'738457290'
p2249
VLoke Lf
p2250
sS'594083526'
p2251
VFoo Toon Min
p2252
sS'601910818'
p2253
VLee Chu Yong Mark
p2254
saa(lp2255
S'10151927945522798'
p2256
aS'1389795664'
p2257
a(dp2258
S'600967843'
p2259
VEdwin Liang
p2260
sS'689417797'
p2261
VYip Cheng Wai
p2262
sS'595277736'
p2263
VJun Yi Lee
p2264
sS'655422545'
p2265
VZhou Kai
p2266
sS'760604218'
p2267
VKliven Tan
p2268
sS'840583373'
p2269
VMX Chai
p2270
sS'1601660809'
p2271
VChunqi Zhu
p2272
sS'738457290'
p2273
VLoke Lf
p2274
sS'594083526'
p2275
VFoo Toon Min
p2276
sS'601910818'
p2277
VLee Chu Yong Mark
p2278
saa(lp2279
S'10152013018710819'
p2280
aS'1389501938'
p2281
a(dp2282
S'646142505'
p2283
VShawn Ng
p2284
sS'601910818'
p2285
VLee Chu Yong Mark
p2286
sS'832975103'
p2287
VAlvin Liew
p2288
sS'616283047'
p2289
VZheng Yi
p2290
sS'100003353210488'
p2291
VChan Yarn Kit
p2292
saa(lp2293
S'10151807144526447'
p2294
aS'1388789223'
p2295
a(dp2296
S'531868159'
p2297
VMelissa Chan
p2298
sS'601910818'
p2299
VLee Chu Yong Mark
p2300
sS'662111446'
p2301
VLim Chern Yuen
p2302
saa(lp2303
S'10151807143936447'
p2304
aS'1388789195'
p2305
a(dp2306
S'531868159'
p2307
VMelissa Chan
p2308
sS'601910818'
p2309
VLee Chu Yong Mark
p2310
sS'662111446'
p2311
VLim Chern Yuen
p2312
saa(lp2313
S'10152647108956777'
p2314
aS'1388707660'
p2315
a(dp2316
S'531868159'
p2317
VMelissa Chan
p2318
sS'601910818'
p2319
VLee Chu Yong Mark
p2320
sS'662111446'
p2321
VLim Chern Yuen
p2322
saa(lp2323
S'10151868711812798'
p2324
aS'1387144513'
p2325
a(dp2326
S'689417797'
p2327
VYip Cheng Wai
p2328
sS'756759929'
p2329
VXue Zheng Wong
p2330
sS'1476772218'
p2331
VHan Loong
p2332
sS'594083526'
p2333
VFoo Toon Min
p2334
sS'601910818'
p2335
VLee Chu Yong Mark
p2336
sS'662111446'
p2337
VLim Chern Yuen
p2338
saa(lp2339
S'10151935105840119'
p2340
aS'1381596176'
p2341
a(dp2342
S'840583373'
p2343
VMX Chai
p2344
sS'601910818'
p2345
VLee Chu Yong Mark
p2346
sS'646033821'
p2347
VSeah Chin Ying
p2348
saa(lp2349
S'10151870381523374'
p2350
aS'1380099956'
p2351
a(dp2352
S'600967843'
p2353
VEdwin Liang
p2354
sS'601910818'
p2355
VLee Chu Yong Mark
p2356
saa(lp2357
S'10151763302095819'
p2358
aS'1379148840'
p2359
a(dp2360
S'840583373'
p2361
VMX Chai
p2362
sS'601910818'
p2363
VLee Chu Yong Mark
p2364
sS'646033821'
p2365
VSeah Chin Ying
p2366
sS'724443667'
p2367
VYang Kenneth Lu
p2368
saa(lp2369
S'10151677483703822'
p2370
aS'1379152860'
p2371
a(dp2372
S'840583373'
p2373
VMX Chai
p2374
sS'601910818'
p2375
VLee Chu Yong Mark
p2376
sS'1389777357'
p2377
VRay Yan
p2378
sS'1082054193'
p2379
VSue Zheng Hao
p2380
saa(lp2381
S'10151763302000819'
p2382
aS'1379148840'
p2383
a(dp2384
S'10151763307560819'
p2385
VChao Xu
p2386
sS'601910818'
p2387
VLee Chu Yong Mark
p2388
sS'745548182'
p2389
VSzeto Kah Keong
p2390
sS'832975103'
p2391
VAlvin Liew
p2392
saa(lp2393
S'10151763300465819'
p2394
aS'1379148840'
p2395
a(dp2396
S'600967843'
p2397
VEdwin Liang
p2398
sS'840583373'
p2399
VMX Chai
p2400
sS'601910818'
p2401
VLee Chu Yong Mark
p2402
sS'646033821'
p2403
VSeah Chin Ying
p2404
saa(lp2405
S'10151827270198048'
p2406
aS'1378621200'
p2407
a(dp2408
S'646142505'
p2409
VShawn Ng
p2410
sS'601910818'
p2411
VLee Chu Yong Mark
p2412
sS'100000513474595'
p2413
VTimothy Yap
p2414
sS'832975103'
p2415
VAlvin Liew
p2416
saa(lp2417
S'10152366736666777'
p2418
aS'1376267895'
p2419
a(dp2420
S'1047768460'
p2421
VEvelyn He Xinyi
p2422
sS'832975103'
p2423
VAlvin Liew
p2424
sS'646142505'
p2425
VShawn Ng
p2426
sS'669654770'
p2427
VFan Yu Zhen
p2428
sS'601910818'
p2429
VLee Chu Yong Mark
p2430
sS'662111446'
p2431
VLim Chern Yuen
p2432
saa(lp2433
S'10152366736141777'
p2434
aS'1376267874'
p2435
a(dp2436
S'736201622'
p2437
VDarren Lum
p2438
sS'1047768460'
p2439
VEvelyn He Xinyi
p2440
sS'735798259'
p2441
VLeong Zhao Hong
p2442
sS'832975103'
p2443
VAlvin Liew
p2444
sS'669654770'
p2445
VFan Yu Zhen
p2446
sS'601910818'
p2447
VLee Chu Yong Mark
p2448
sS'662111446'
p2449
VLim Chern Yuen
p2450
saa(lp2451
S'10151687590495819'
p2452
aS'1376192132'
p2453
a(dp2454
S'601910818'
p2455
VLee Chu Yong Mark
p2456
sS'616283047'
p2457
VZheng Yi
p2458
saa(lp2459
S'10151687589830819'
p2460
aS'1376192106'
p2461
a(dp2462
S'601910818'
p2463
VLee Chu Yong Mark
p2464
sS'1047768460'
p2465
VEvelyn He Xinyi
p2466
sS'669654770'
p2467
VFan Yu Zhen
p2468
saa(lp2469
S'10151687589240819'
p2470
aS'1376192080'
p2471
a(dp2472
S'601910818'
p2473
VLee Chu Yong Mark
p2474
sS'1047768460'
p2475
VEvelyn He Xinyi
p2476
saa(lp2477
S'10151687589235819'
p2478
aS'1376192080'
p2479
a(dp2480
S'646142505'
p2481
VShawn Ng
p2482
sS'601910818'
p2483
VLee Chu Yong Mark
p2484
sS'832975103'
p2485
VAlvin Liew
p2486
sS'616283047'
p2487
VZheng Yi
p2488
sS'100003353210488'
p2489
VChan Yarn Kit
p2490
saa(lp2491
S'10151687588745819'
p2492
aS'1376192062'
p2493
a(dp2494
S'735798259'
p2495
VLeong Zhao Hong
p2496
sS'548517812'
p2497
VOng MurFei
p2498
sS'832975103'
p2499
VAlvin Liew
p2500
sS'601910818'
p2501
VLee Chu Yong Mark
p2502
sS'662111446'
p2503
VLim Chern Yuen
p2504
sS'100003353210488'
p2505
VChan Yarn Kit
p2506
saa(lp2507
S'10151687588330819'
p2508
aS'1376192047'
p2509
a(dp2510
S'646142505'
p2511
VShawn Ng
p2512
sS'601910818'
p2513
VLee Chu Yong Mark
p2514
sS'662111446'
p2515
VLim Chern Yuen
p2516
sS'1086483192'
p2517
VHoang Lan David
p2518
saa(lp2519
S'10151687587620819'
p2520
aS'1376192022'
p2521
a(dp2522
S'601910818'
p2523
VLee Chu Yong Mark
p2524
sS'832975103'
p2525
VAlvin Liew
p2526
saa(lp2527
S'10151686485210819'
p2528
aS'1376161200'
p2529
a(dp2530
S'100003070898994'
p2531
VPek Jie Hui
p2532
sS'1047768460'
p2533
VEvelyn He Xinyi
p2534
sS'570314449'
p2535
VKerry Cao
p2536
sS'548517812'
p2537
VOng MurFei
p2538
sS'662111446'
p2539
VLim Chern Yuen
p2540
sS'100000513474595'
p2541
VTimothy Yap
p2542
sS'1099456898'
p2543
VFan Yi
p2544
sS'614886796'
p2545
VEdward Neo
p2546
sS'832975103'
p2547
VAlvin Liew
p2548
sS'616283047'
p2549
VZheng Yi
p2550
sS'669654770'
p2551
VFan Yu Zhen
p2552
sS'646142505'
p2553
VShawn Ng
p2554
sS'1014814854'
p2555
VChingyee Chia
p2556
sS'601910818'
p2557
VLee Chu Yong Mark
p2558
sS'644405884'
p2559
VEsther Lim
p2560
sS'10151686538775819'
p2561
Vjia ching
p2562
sS'100003353210488'
p2563
VChan Yarn Kit
p2564
saa(lp2565
S'10151686485270819'
p2566
aS'1376150400'
p2567
a(dp2568
S'1047768460'
p2569
VEvelyn He Xinyi
p2570
sS'745548182'
p2571
VSzeto Kah Keong
p2572
sS'548517812'
p2573
VOng MurFei
p2574
sS'735798259'
p2575
VLeong Zhao Hong
p2576
sS'100000513474595'
p2577
VTimothy Yap
p2578
sS'832975103'
p2579
VAlvin Liew
p2580
sS'616283047'
p2581
VZheng Yi
p2582
sS'646142505'
p2583
VShawn Ng
p2584
sS'669654770'
p2585
VFan Yu Zhen
p2586
sS'601910818'
p2587
VLee Chu Yong Mark
p2588
sS'662111446'
p2589
VLim Chern Yuen
p2590
sS'1086483192'
p2591
VHoang Lan David
p2592
sS'100003353210488'
p2593
VChan Yarn Kit
p2594
saa(lp2595
S'10200622604519929'
p2596
aS'1369656000'
p2597
a(dp2598
S'601910818'
p2599
VLee Chu Yong Mark
p2600
sS'547207662'
p2601
VMervyn Lee
p2602
saa(lp2603
S'10151515503281492'
p2604
aS'1364731200'
p2605
a(dp2606
S'716251823'
p2607
VJiaquan Ng
p2608
sS'1047768460'
p2609
VEvelyn He Xinyi
p2610
sS'1160483062'
p2611
VClarice Au
p2612
sS'743831491'
p2613
VWalter Seow
p2614
sS'669654770'
p2615
VFan Yu Zhen
p2616
sS'601910818'
p2617
VLee Chu Yong Mark
p2618
saa(lp2619
S'10151442552035819'
p2620
aS'1364723580'
p2621
a(dp2622
S'669654770'
p2623
VFan Yu Zhen
p2624
sS'601910818'
p2625
VLee Chu Yong Mark
p2626
sS'1047768460'
p2627
VEvelyn He Xinyi
p2628
saa(lp2629
S'10151442463095819'
p2630
aS'1364721000'
p2631
a(dp2632
S'669654770'
p2633
VFan Yu Zhen
p2634
sS'601910818'
p2635
VLee Chu Yong Mark
p2636
sS'1047768460'
p2637
VEvelyn He Xinyi
p2638
saa(lp2639
S'10200091318859566'
p2640
aS'1364107437'
p2641
a(dp2642
S'1047768460'
p2643
VEvelyn He Xinyi
p2644
sS'832975103'
p2645
VAlvin Liew
p2646
sS'616283047'
p2647
VZheng Yi
p2648
sS'669654770'
p2649
VFan Yu Zhen
p2650
sS'601910818'
p2651
VLee Chu Yong Mark
p2652
sS'100003353210488'
p2653
VChan Yarn Kit
p2654
saa(lp2655
S'10200091312699412'
p2656
aS'1364107219'
p2657
a(dp2658
S'1047768460'
p2659
VEvelyn He Xinyi
p2660
sS'832975103'
p2661
VAlvin Liew
p2662
sS'616283047'
p2663
VZheng Yi
p2664
sS'669654770'
p2665
VFan Yu Zhen
p2666
sS'601910818'
p2667
VLee Chu Yong Mark
p2668
sS'100003353210488'
p2669
VChan Yarn Kit
p2670
saa(lp2671
S'10151399332005819'
p2672
aS'1362394800'
p2673
a(dp2674
S'100000993502349'
p2675
VMelvin Quan
p2676
sS'531341403'
p2677
VK Jun Wei
p2678
sS'1646285319'
p2679
VTony Hang
p2680
sS'100000592640068'
p2681
VAdam Tan
p2682
sS'100002060778182'
p2683
VShawn Wong
p2684
sS'10151399338910819'
p2685
VWai Chung
p2686
sS'10151399338865819'
p2687
VErnest
p2688
sS'601910818'
p2689
VLee Chu Yong Mark
p2690
sS'663866484'
p2691
VQuek Feng Rong Kenneth
p2692
sS'540643165'
p2693
VJin Jie
p2694
saa(lp2695
S'10151346415819671'
p2696
aS'1362209578'
p2697
a(dp2698
S'632059508'
p2699
VTay Kiat Long
p2700
sS'724443667'
p2701
VYang Kenneth Lu
p2702
sS'601910818'
p2703
VLee Chu Yong Mark
p2704
sS'646033821'
p2705
VSeah Chin Ying
p2706
saa(lp2707
S'10151346414919671'
p2708
aS'1362209535'
p2709
a(dp2710
S'724443667'
p2711
VYang Kenneth Lu
p2712
sS'601910818'
p2713
VLee Chu Yong Mark
p2714
sS'646033821'
p2715
VSeah Chin Ying
p2716
sS'810480981'
p2717
VClarence Sim Wei Hung
p2718
saa(lp2719
S'425073750904647'
p2720
aS'1357936764'
p2721
a(dp2722
S'100002060778182'
p2723
VShawn Wong
p2724
sS'601910818'
p2725
VLee Chu Yong Mark
p2726
sS'547207662'
p2727
VMervyn Lee
p2728
saa(lp2729
S'425073697571319'
p2730
aS'1357936761'
p2731
a(dp2732
S'601910818'
p2733
VLee Chu Yong Mark
p2734
sS'100000592640068'
p2735
VAdam Tan
p2736
saa(lp2737
S'425073667571322'
p2738
aS'1357936759'
p2739
a(dp2740
S'100002060778182'
p2741
VShawn Wong
p2742
sS'601910818'
p2743
VLee Chu Yong Mark
p2744
sS'547207662'
p2745
VMervyn Lee
p2746
saa(lp2747
S'425073307571358'
p2748
aS'1357936745'
p2749
a(dp2750
S'521343623'
p2751
VTervin Yeo Kee Wang
p2752
sS'100000993502349'
p2753
VMelvin Quan
p2754
sS'531341403'
p2755
VK Jun Wei
p2756
sS'100000592640068'
p2757
VAdam Tan
p2758
sS'100002060778182'
p2759
VShawn Wong
p2760
sS'547207662'
p2761
VMervyn Lee
p2762
sS'601910818'
p2763
VLee Chu Yong Mark
p2764
saa(lp2765
S'425073250904697'
p2766
aS'1357936741'
p2767
a(dp2768
S'601910818'
p2769
VLee Chu Yong Mark
p2770
sS'531341403'
p2771
VK Jun Wei
p2772
saa(lp2773
S'10151180634187111'
p2774
aS'1357721320'
p2775
a(dp2776
S'600967843'
p2777
VEdwin Liang
p2778
sS'595277736'
p2779
VJun Yi Lee
p2780
sS'1476772218'
p2781
VHan Loong
p2782
sS'760604218'
p2783
VKliven Tan
p2784
sS'1060529401'
p2785
VJoshua Lim
p2786
sS'1601660809'
p2787
VChunqi Zhu
p2788
sS'773628884'
p2789
VDarius Chan
p2790
sS'1651616676'
p2791
VLi Qizhu
p2792
sS'1344728347'
p2793
VErnest Wyatt
p2794
sS'647117814'
p2795
VLester Mok
p2796
sS'716018254'
p2797
VNigel Ng Yingjie
p2798
sS'601910818'
p2799
VLee Chu Yong Mark
p2800
sS'547022235'
p2801
VJohn Yong
p2802
sS'532996691'
p2803
VJonathan Voon
p2804
saa(lp2805
S'10151210578508822'
p2806
aS'1356979739'
p2807
a(dp2808
S'556300118'
p2809
VRachel Koh
p2810
sS'601910818'
p2811
VLee Chu Yong Mark
p2812
saa(lp2813
S'10151117250121447'
p2814
aS'1354638178'
p2815
a(dp2816
S'601910818'
p2817
VLee Chu Yong Mark
p2818
sS'662111446'
p2819
VLim Chern Yuen
p2820
saa(lp2821
S'10151117250116447'
p2822
aS'1354638177'
p2823
a(dp2824
S'601910818'
p2825
VLee Chu Yong Mark
p2826
sS'662111446'
p2827
VLim Chern Yuen
p2828
saa(lp2829
S'402255469853142'
p2830
aS'1353584036'
p2831
a(dp2832
S'1752506120'
p2833
VAnson Ong Cai Hua
p2834
sS'601910818'
p2835
VLee Chu Yong Mark
p2836
sS'100001838126251'
p2837
VKouk Leong Jun
p2838
saa(lp2839
S'10151084452902844'
p2840
aS'1349793858'
p2841
a(dp2842
S'674158062'
p2843
VYu Xuan Chin
p2844
sS'100003984325851'
p2845
VSinying Chua
p2846
sS'581641434'
p2847
VRyan Tan
p2848
sS'575877949'
p2849
VChua Yi Lin
p2850
sS'602210312'
p2851
VChin Ken Min
p2852
sS'599218880'
p2853
VZhi Ting Leow
p2854
sS'840583373'
p2855
VMX Chai
p2856
sS'722897303'
p2857
VNicole Liang
p2858
sS'780604352'
p2859
VLee Yao Zhang Jeremy
p2860
sS'700153638'
p2861
VLuke Tan Zhao Xun
p2862
sS'1132233109'
p2863
VKelly Chng
p2864
sS'601910818'
p2865
VLee Chu Yong Mark
p2866
sS'738912925'
p2867
VShayne Tan
p2868
sS'670007419'
p2869
VShane Lee
p2870
saa(lp2871
S'10151229900040119'
p2872
aS'1348508441'
p2873
a(dp2874
S'840583373'
p2875
VMX Chai
p2876
sS'601910818'
p2877
VLee Chu Yong Mark
p2878
sS'646033821'
p2879
VSeah Chin Ying
p2880
saa(lp2881
S'10151118163319771'
p2882
aS'1345263369'
p2883
a(dp2884
S'662111446'
p2885
VLim Chern Yuen
p2886
sS'1047768460'
p2887
VEvelyn He Xinyi
p2888
sS'640066776'
p2889
VCao Yun
p2890
sS'601910818'
p2891
VLee Chu Yong Mark
p2892
sS'735798259'
p2893
VLeong Zhao Hong
p2894
saa(lp2895
S'3842683059399'
p2896
aS'1344703611'
p2897
a(dp2898
S'669654770'
p2899
VFan Yu Zhen
p2900
sS'1047768460'
p2901
VEvelyn He Xinyi
p2902
sS'547022235'
p2903
VJohn Yong
p2904
sS'601910818'
p2905
VLee Chu Yong Mark
p2906
saa(lp2907
S'3842682179377'
p2908
aS'1344703607'
p2909
a(dp2910
S'1047768460'
p2911
VEvelyn He Xinyi
p2912
sS'601910818'
p2913
VLee Chu Yong Mark
p2914
sS'547022235'
p2915
VJohn Yong
p2916
sS'669654770'
p2917
VFan Yu Zhen
p2918
saa(lp2919
S'3842681539361'
p2920
aS'1344703603'
p2921
a(dp2922
S'669654770'
p2923
VFan Yu Zhen
p2924
sS'1047768460'
p2925
VEvelyn He Xinyi
p2926
sS'547022235'
p2927
VJohn Yong
p2928
sS'601910818'
p2929
VLee Chu Yong Mark
p2930
saa(lp2931
S'3842681179352'
p2932
aS'1344703599'
p2933
a(dp2934
S'669654770'
p2935
VFan Yu Zhen
p2936
sS'601910818'
p2937
VLee Chu Yong Mark
p2938
sS'1047768460'
p2939
VEvelyn He Xinyi
p2940
sS'547022235'
p2941
VJohn Yong
p2942
sS'100003353210488'
p2943
VChan Yarn Kit
p2944
saa(lp2945
S'3842675059199'
p2946
aS'1344703503'
p2947
a(dp2948
S'1047768460'
p2949
VEvelyn He Xinyi
p2950
sS'832975103'
p2951
VAlvin Liew
p2952
sS'616283047'
p2953
VZheng Yi
p2954
sS'669654770'
p2955
VFan Yu Zhen
p2956
sS'601910818'
p2957
VLee Chu Yong Mark
p2958
sS'547022235'
p2959
VJohn Yong
p2960
saa(lp2961
S'10151996925795104'
p2962
aS'1344703195'
p2963
a(dp2964
S'1047768460'
p2965
VEvelyn He Xinyi
p2966
sS'640066776'
p2967
VCao Yun
p2968
sS'100000513474595'
p2969
VTimothy Yap
p2970
sS'832975103'
p2971
VAlvin Liew
p2972
sS'616283047'
p2973
VZheng Yi
p2974
sS'669654770'
p2975
VFan Yu Zhen
p2976
sS'601910818'
p2977
VLee Chu Yong Mark
p2978
sS'662111446'
p2979
VLim Chern Yuen
p2980
sS'547022235'
p2981
VJohn Yong
p2982
sS'1086483192'
p2983
VHoang Lan David
p2984
sS'100003353210488'
p2985
VChan Yarn Kit
p2986
saa(lp2987
S'3841753596163'
p2988
aS'1344679618'
p2989
a(dp2990
S'601910818'
p2991
VLee Chu Yong Mark
p2992
sS'832975103'
p2993
VAlvin Liew
p2994
sS'547022235'
p2995
VJohn Yong
p2996
sS'100003353210488'
p2997
VChan Yarn Kit
p2998
saa(lp2999
S'22218178552'
p3000
aS'1204643909'
p3001
a(dp3002
S'668989715'
p3003
VDennis Woo
p3004
sS'671058646'
p3005
VEng Way Yeo
p3006
sS'547823788'
p3007
VSoh Cheong Keat
p3008
sS'742549789'
p3009
VJon Tan
p3010
sS'740425178'
p3011
VAlfred Wan
p3012
sS'569346844'
p3013
VJanus Low
p3014
sS'601910818'
p3015
VLee Chu Yong Mark
p3016
sS'677963641'
p3017
VChuan Chia
p3018
saa(lp3019
S'10150946518821623'
p3020
aS'1342272836'
p3021
a(dp3022
S'601910818'
p3023
VLee Chu Yong Mark
p3024
sS'640066776'
p3025
VCao Yun
p3026
sS'10150946519561623'
p3027
Vromantic gift
p3028
saa(lp3029
S'10151748058246777'
p3030
aS'1342268132'
p3031
a(dp3032
S'736201622'
p3033
VDarren Lum
p3034
sS'640066776'
p3035
VCao Yun
p3036
sS'100000513474595'
p3037
VTimothy Yap
p3038
sS'832975103'
p3039
VAlvin Liew
p3040
sS'669654770'
p3041
VFan Yu Zhen
p3042
sS'601910818'
p3043
VLee Chu Yong Mark
p3044
sS'547022235'
p3045
VJohn Yong
p3046
saa(lp3047
S'10151748058076777'
p3048
aS'1342268127'
p3049
a(dp3050
S'669654770'
p3051
VFan Yu Zhen
p3052
sS'601910818'
p3053
VLee Chu Yong Mark
p3054
saa(lp3055
S'10151748056196777'
p3056
aS'1342268052'
p3057
a(dp3058
S'100000513474595'
p3059
VTimothy Yap
p3060
sS'601910818'
p3061
VLee Chu Yong Mark
p3062
sS'640066776'
p3063
VCao Yun
p3064
saa(lp3065
S'10151748055221777'
p3066
aS'1342268016'
p3067
a(dp3068
S'669654770'
p3069
VFan Yu Zhen
p3070
sS'100000513474595'
p3071
VTimothy Yap
p3072
sS'662111446'
p3073
VLim Chern Yuen
p3074
sS'547022235'
p3075
VJohn Yong
p3076
sS'601910818'
p3077
VLee Chu Yong Mark
p3078
saa(lp3079
S'10151089382665119'
p3080
aS'1342186274'
p3081
a(dp3082
S'601910818'
p3083
VLee Chu Yong Mark
p3084
sS'646033821'
p3085
VSeah Chin Ying
p3086
saa(lp3087
S'10151680393341777'
p3088
aS'1339249032'
p3089
a(dp3090
S'736201622'
p3091
VDarren Lum
p3092
sS'735798259'
p3093
VLeong Zhao Hong
p3094
sS'640066776'
p3095
VCao Yun
p3096
sS'745548182'
p3097
VSzeto Kah Keong
p3098
sS'832975103'
p3099
VAlvin Liew
p3100
sS'669654770'
p3101
VFan Yu Zhen
p3102
sS'601910818'
p3103
VLee Chu Yong Mark
p3104
sS'547022235'
p3105
VJohn Yong
p3106
saa(lp3107
S'10151680392901777'
p3108
aS'1339249022'
p3109
a(dp3110
S'736201622'
p3111
VDarren Lum
p3112
sS'735798259'
p3113
VLeong Zhao Hong
p3114
sS'640066776'
p3115
VCao Yun
p3116
sS'745548182'
p3117
VSzeto Kah Keong
p3118
sS'832975103'
p3119
VAlvin Liew
p3120
sS'669654770'
p3121
VFan Yu Zhen
p3122
sS'601910818'
p3123
VLee Chu Yong Mark
p3124
sS'547022235'
p3125
VJohn Yong
p3126
saa(lp3127
S'10151680391391777'
p3128
aS'1339248976'
p3129
a(dp3130
S'601910818'
p3131
VLee Chu Yong Mark
p3132
sS'735798259'
p3133
VLeong Zhao Hong
p3134
saa(lp3135
S'10150965891505119'
p3136
aS'1337483692'
p3137
a(dp3138
S'556300118'
p3139
VRachel Koh
p3140
sS'601910818'
p3141
VLee Chu Yong Mark
p3142
sS'840583373'
p3143
VMX Chai
p3144
saa(lp3145
S'10150965891170119'
p3146
aS'1337483682'
p3147
a(dp3148
S'556300118'
p3149
VRachel Koh
p3150
sS'601910818'
p3151
VLee Chu Yong Mark
p3152
sS'840583373'
p3153
VMX Chai
p3154
saa(lp3155
S'10150688351035326'
p3156
aS'1334389763'
p3157
a(dp3158
S'747124411'
p3159
VSamuel Tan Yuan Han
p3160
sS'556513771'
p3161
VTroy Tan
p3162
sS'736201622'
p3163
VDarren Lum
p3164
sS'530573725'
p3165
VStanley Koo
p3166
sS'632059508'
p3167
VTay Kiat Long
p3168
sS'562432636'
p3169
V\u9673\u4fca
p3170
sS'607520038'
p3171
VZi Song Lim
p3172
sS'601910818'
p3173
VLee Chu Yong Mark
p3174
saa(lp3175
S'10150659625527844'
p3176
aS'1334127605'
p3177
a(dp3178
S'601910818'
p3179
VLee Chu Yong Mark
p3180
sS'735798259'
p3181
VLeong Zhao Hong
p3182
saa(lp3183
S'10150659625422844'
p3184
aS'1334127598'
p3185
a(dp3186
S'600967843'
p3187
VEdwin Liang
p3188
sS'601910818'
p3189
VLee Chu Yong Mark
p3190
saa(lp3191
S'10150659485341777'
p3192
aS'1333970094'
p3193
a(dp3194
S'601910818'
p3195
VLee Chu Yong Mark
p3196
sS'745548182'
p3197
VSzeto Kah Keong
p3198
sS'832975103'
p3199
VAlvin Liew
p3200
sS'616283047'
p3201
VZheng Yi
p3202
saa(lp3203
S'10150657751781777'
p3204
aS'1333894662'
p3205
a(dp3206
S'601910818'
p3207
VLee Chu Yong Mark
p3208
sS'1047768460'
p3209
VEvelyn He Xinyi
p3210
sS'640066776'
p3211
VCao Yun
p3212
sS'832975103'
p3213
VAlvin Liew
p3214
sS'735798259'
p3215
VLeong Zhao Hong
p3216
saa(lp3217
S'10150663783886623'
p3218
aS'1333888679'
p3219
a(dp3220
S'601910818'
p3221
VLee Chu Yong Mark
p3222
sS'736201622'
p3223
VDarren Lum
p3224
sS'1047768460'
p3225
VEvelyn He Xinyi
p3226
sS'832975103'
p3227
VAlvin Liew
p3228
sS'735798259'
p3229
VLeong Zhao Hong
p3230
saa(lp3231
S'265616416862509'
p3232
aS'1333875898'
p3233
a(dp3234
S'724443667'
p3235
VYang Kenneth Lu
p3236
sS'601910818'
p3237
VLee Chu Yong Mark
p3238
saa(lp3239
S'10150520655140819'
p3240
aS'1327032000'
p3241
a(dp3242
S'786763923'
p3243
VOng Han Wee
p3244
sS'1222628268'
p3245
VWang Mengting
p3246
sS'570314449'
p3247
VKerry Cao
p3248
sS'610269723'
p3249
VZongchen Li
p3250
sS'1506555438'
p3251
VXiaonan Lu
p3252
sS'650642627'
p3253
VHuang Baoxian
p3254
sS'594599421'
p3255
VJoshua Foo
p3256
sS'10150520658045819'
p3257
VHtet Aung
p3258
sS'532944099'
p3259
VYvette Chong
p3260
sS'1082387719'
p3261
VTai Jia Ching
p3262
sS'832975103'
p3263
VAlvin Liew
p3264
sS'723302226'
p3265
VWu JingTing
p3266
sS'535647927'
p3267
VCaleb Foo
p3268
sS'1014814854'
p3269
VChingyee Chia
p3270
sS'10150520657825819'
p3271
VChao Xu
p3272
sS'601910818'
p3273
VLee Chu Yong Mark
p3274
sS'100001839652713'
p3275
VKoh Hui Qi
p3276
sS'547022235'
p3277
VJohn Yong
p3278
sS'579544904'
p3279
VAng Jia Xi
p3280
sS'1555285404'
p3281
VXu Di
p3282
saa(lp3283
S'10150514172487737'
p3284
aS'1325131200'
p3285
a(dp3286
S'600967843'
p3287
VEdwin Liang
p3288
sS'689417797'
p3289
VYip Cheng Wai
p3290
sS'595277736'
p3291
VJun Yi Lee
p3292
sS'714817110'
p3293
VYap Keng Peng
p3294
sS'100002424577847'
p3295
VKarl Von Frisch
p3296
sS'532996691'
p3297
VJonathan Voon
p3298
sS'100001839655043'
p3299
VHo Zhi Ming
p3300
sS'760604218'
p3301
VKliven Tan
p3302
sS'758247561'
p3303
VSim Zhen Wei
p3304
sS'1601660809'
p3305
VChunqi Zhu
p3306
sS'646033821'
p3307
VSeah Chin Ying
p3308
sS'572435998'
p3309
VMike Zhang Xunda
p3310
sS'560988346'
p3311
VNg Ke Wei
p3312
sS'647117814'
p3313
VLester Mok
p3314
sS'1847916286'
p3315
VKeith Yaow
p3316
sS'594083526'
p3317
VFoo Toon Min
p3318
sS'571895841'
p3319
VTan Yu Xuan
p3320
sS'716018254'
p3321
VNigel Ng Yingjie
p3322
sS'1344728347'
p3323
VErnest Wyatt
p3324
sS'601910818'
p3325
VLee Chu Yong Mark
p3326
saa(lp3327
S'10150514172262737'
p3328
aS'1325131200'
p3329
a(dp3330
S'600967843'
p3331
VEdwin Liang
p3332
sS'689417797'
p3333
VYip Cheng Wai
p3334
sS'595277736'
p3335
VJun Yi Lee
p3336
sS'714817110'
p3337
VYap Keng Peng
p3338
sS'100002424577847'
p3339
VKarl Von Frisch
p3340
sS'532996691'
p3341
VJonathan Voon
p3342
sS'100001839655043'
p3343
VHo Zhi Ming
p3344
sS'760604218'
p3345
VKliven Tan
p3346
sS'758247561'
p3347
VSim Zhen Wei
p3348
sS'1601660809'
p3349
VChunqi Zhu
p3350
sS'646033821'
p3351
VSeah Chin Ying
p3352
sS'572435998'
p3353
VMike Zhang Xunda
p3354
sS'560988346'
p3355
VNg Ke Wei
p3356
sS'647117814'
p3357
VLester Mok
p3358
sS'1847916286'
p3359
VKeith Yaow
p3360
sS'594083526'
p3361
VFoo Toon Min
p3362
sS'571895841'
p3363
VTan Yu Xuan
p3364
sS'716018254'
p3365
VNigel Ng Yingjie
p3366
sS'1344728347'
p3367
VErnest Wyatt
p3368
sS'601910818'
p3369
VLee Chu Yong Mark
p3370
saa(lp3371
S'10150512400254771'
p3372
aS'1325905396'
p3373
a(dp3374
S'669654770'
p3375
VFan Yu Zhen
p3376
sS'736201622'
p3377
VDarren Lum
p3378
sS'1047768460'
p3379
VEvelyn He Xinyi
p3380
sS'601910818'
p3381
VLee Chu Yong Mark
p3382
sS'547022235'
p3383
VJohn Yong
p3384
saa(lp3385
S'10150512400929771'
p3386
aS'1325905422'
p3387
a(dp3388
S'1047768460'
p3389
VEvelyn He Xinyi
p3390
sS'601910818'
p3391
VLee Chu Yong Mark
p3392
saa(lp3393
S'10150512400614771'
p3394
aS'1325905407'
p3395
a(dp3396
S'669654770'
p3397
VFan Yu Zhen
p3398
sS'736201622'
p3399
VDarren Lum
p3400
sS'1047768460'
p3401
VEvelyn He Xinyi
p3402
sS'601910818'
p3403
VLee Chu Yong Mark
p3404
sS'547022235'
p3405
VJohn Yong
p3406
saa(lp3407
S'10150512400509771'
p3408
aS'1325905400'
p3409
a(dp3410
S'669654770'
p3411
VFan Yu Zhen
p3412
sS'736201622'
p3413
VDarren Lum
p3414
sS'1047768460'
p3415
VEvelyn He Xinyi
p3416
sS'601910818'
p3417
VLee Chu Yong Mark
p3418
sS'547022235'
p3419
VJohn Yong
p3420
saa(lp3421
S'10150512400134771'
p3422
aS'1325905392'
p3423
a(dp3424
S'669654770'
p3425
VFan Yu Zhen
p3426
sS'1047768460'
p3427
VEvelyn He Xinyi
p3428
sS'601910818'
p3429
VLee Chu Yong Mark
p3430
sS'547022235'
p3431
VJohn Yong
p3432
saa(lp3433
S'10150512399319771'
p3434
aS'1325905346'
p3435
a(dp3436
S'736201622'
p3437
VDarren Lum
p3438
sS'1047768460'
p3439
VEvelyn He Xinyi
p3440
sS'735798259'
p3441
VLeong Zhao Hong
p3442
sS'832975103'
p3443
VAlvin Liew
p3444
sS'669654770'
p3445
VFan Yu Zhen
p3446
sS'601910818'
p3447
VLee Chu Yong Mark
p3448
sS'547022235'
p3449
VJohn Yong
p3450
saa(lp3451
S'2665492830379'
p3452
aS'1325824993'
p3453
a(dp3454
S'1047768460'
p3455
VEvelyn He Xinyi
p3456
sS'100000513474595'
p3457
VTimothy Yap
p3458
sS'832975103'
p3459
VAlvin Liew
p3460
sS'616283047'
p3461
VZheng Yi
p3462
sS'669654770'
p3463
VFan Yu Zhen
p3464
sS'601910818'
p3465
VLee Chu Yong Mark
p3466
saa(lp3467
S'2665495190438'
p3468
aS'1325825029'
p3469
a(dp3470
S'601910818'
p3471
VLee Chu Yong Mark
p3472
sS'832975103'
p3473
VAlvin Liew
p3474
sS'616283047'
p3475
VZheng Yi
p3476
saa(lp3477
S'2665494790428'
p3478
aS'1325825020'
p3479
a(dp3480
S'601910818'
p3481
VLee Chu Yong Mark
p3482
sS'100000513474595'
p3483
VTimothy Yap
p3484
sS'547022235'
p3485
VJohn Yong
p3486
saa(lp3487
S'10150460409856777'
p3488
aS'1325252886'
p3489
a(dp3490
S'736201622'
p3491
VDarren Lum
p3492
sS'1047768460'
p3493
VEvelyn He Xinyi
p3494
sS'735798259'
p3495
VLeong Zhao Hong
p3496
sS'640066776'
p3497
VCao Yun
p3498
sS'669654770'
p3499
VFan Yu Zhen
p3500
sS'601910818'
p3501
VLee Chu Yong Mark
p3502
sS'662111446'
p3503
VLim Chern Yuen
p3504
sS'547022235'
p3505
VJohn Yong
p3506
saa(lp3507
S'10150455503751623'
p3508
aS'1324977623'
p3509
a(dp3510
S'736201622'
p3511
VDarren Lum
p3512
sS'601910818'
p3513
VLee Chu Yong Mark
p3514
sS'1651616676'
p3515
VLi Qizhu
p3516
saa(lp3517
S'10150455502971623'
p3518
aS'1324977594'
p3519
a(dp3520
S'736201622'
p3521
VDarren Lum
p3522
sS'601910818'
p3523
VLee Chu Yong Mark
p3524
saa(lp3525
S'10150455492166623'
p3526
aS'1324976981'
p3527
a(dp3528
S'736201622'
p3529
VDarren Lum
p3530
sS'601910818'
p3531
VLee Chu Yong Mark
p3532
saa(lp3533
S'10150452600053668'
p3534
aS'1324889290'
p3535
a(dp3536
S'100002424577847'
p3537
VKarl Von Frisch
p3538
sS'646033821'
p3539
VSeah Chin Ying
p3540
sS'724443667'
p3541
VYang Kenneth Lu
p3542
sS'556300118'
p3543
VRachel Koh
p3544
sS'601910818'
p3545
VLee Chu Yong Mark
p3546
sS'674806097'
p3547
VVanice Wong
p3548
sS'575173882'
p3549
VNgo Wei Ze
p3550
saa(lp3551
S'10150452599758668'
p3552
aS'1324889274'
p3553
a(dp3554
S'600967843'
p3555
VEdwin Liang
p3556
sS'646033821'
p3557
VSeah Chin Ying
p3558
sS'601910818'
p3559
VLee Chu Yong Mark
p3560
sS'100002424577847'
p3561
VKarl Von Frisch
p3562
saa(lp3563
S'10150452595908668'
p3564
aS'1324889080'
p3565
a(dp3566
S'724443667'
p3567
VYang Kenneth Lu
p3568
sS'601910818'
p3569
VLee Chu Yong Mark
p3570
saa(lp3571
S'338177989542647'
p3572
aS'1324380210'
p3573
a(dp3574
S'1047768460'
p3575
VEvelyn He Xinyi
p3576
sS'735798259'
p3577
VLeong Zhao Hong
p3578
sS'832975103'
p3579
VAlvin Liew
p3580
sS'616283047'
p3581
VZheng Yi
p3582
sS'669654770'
p3583
VFan Yu Zhen
p3584
sS'601910818'
p3585
VLee Chu Yong Mark
p3586
sS'547022235'
p3587
VJohn Yong
p3588
saa(lp3589
S'338177782876001'
p3590
aS'1324380178'
p3591
a(dp3592
S'1047768460'
p3593
VEvelyn He Xinyi
p3594
sS'735798259'
p3595
VLeong Zhao Hong
p3596
sS'100000513474595'
p3597
VTimothy Yap
p3598
sS'745548182'
p3599
VSzeto Kah Keong
p3600
sS'832975103'
p3601
VAlvin Liew
p3602
sS'616283047'
p3603
VZheng Yi
p3604
sS'669654770'
p3605
VFan Yu Zhen
p3606
sS'601910818'
p3607
VLee Chu Yong Mark
p3608
sS'547022235'
p3609
VJohn Yong
p3610
saa(lp3611
S'338177662876013'
p3612
aS'1324380157'
p3613
a(dp3614
S'1047768460'
p3615
VEvelyn He Xinyi
p3616
sS'735798259'
p3617
VLeong Zhao Hong
p3618
sS'100000513474595'
p3619
VTimothy Yap
p3620
sS'745548182'
p3621
VSzeto Kah Keong
p3622
sS'832975103'
p3623
VAlvin Liew
p3624
sS'616283047'
p3625
VZheng Yi
p3626
sS'669654770'
p3627
VFan Yu Zhen
p3628
sS'601910818'
p3629
VLee Chu Yong Mark
p3630
sS'547022235'
p3631
VJohn Yong
p3632
saa(lp3633
S'338177459542700'
p3634
aS'1324380130'
p3635
a(dp3636
S'1047768460'
p3637
VEvelyn He Xinyi
p3638
sS'735798259'
p3639
VLeong Zhao Hong
p3640
sS'745548182'
p3641
VSzeto Kah Keong
p3642
sS'832975103'
p3643
VAlvin Liew
p3644
sS'616283047'
p3645
VZheng Yi
p3646
sS'601910818'
p3647
VLee Chu Yong Mark
p3648
sS'547022235'
p3649
VJohn Yong
p3650
saa(lp3651
S'338178252875954'
p3652
aS'1324380256'
p3653
a(dp3654
S'601910818'
p3655
VLee Chu Yong Mark
p3656
sS'735798259'
p3657
VLeong Zhao Hong
p3658
saa(lp3659
S'338178199542626'
p3660
aS'1324380249'
p3661
a(dp3662
S'745548182'
p3663
VSzeto Kah Keong
p3664
sS'832975103'
p3665
VAlvin Liew
p3666
sS'616283047'
p3667
VZheng Yi
p3668
sS'669654770'
p3669
VFan Yu Zhen
p3670
sS'601910818'
p3671
VLee Chu Yong Mark
p3672
sS'547022235'
p3673
VJohn Yong
p3674
saa(lp3675
S'338177522876027'
p3676
aS'1324380137'
p3677
a(dp3678
S'735798259'
p3679
VLeong Zhao Hong
p3680
sS'745548182'
p3681
VSzeto Kah Keong
p3682
sS'832975103'
p3683
VAlvin Liew
p3684
sS'616283047'
p3685
VZheng Yi
p3686
sS'601910818'
p3687
VLee Chu Yong Mark
p3688
sS'547022235'
p3689
VJohn Yong
p3690
saa(lp3691
S'338177412876038'
p3692
aS'1324380123'
p3693
a(dp3694
S'601910818'
p3695
VLee Chu Yong Mark
p3696
sS'832975103'
p3697
VAlvin Liew
p3698
saa(lp3699
S'10150474465879771'
p3700
aS'1324373798'
p3701
a(dp3702
S'1047768460'
p3703
VEvelyn He Xinyi
p3704
sS'735798259'
p3705
VLeong Zhao Hong
p3706
sS'100000513474595'
p3707
VTimothy Yap
p3708
sS'745548182'
p3709
VSzeto Kah Keong
p3710
sS'832975103'
p3711
VAlvin Liew
p3712
sS'616283047'
p3713
VZheng Yi
p3714
sS'601910818'
p3715
VLee Chu Yong Mark
p3716
sS'547022235'
p3717
VJohn Yong
p3718
saa(lp3719
S'10150474465974771'
p3720
aS'1324373802'
p3721
a(dp3722
S'1047768460'
p3723
VEvelyn He Xinyi
p3724
sS'735798259'
p3725
VLeong Zhao Hong
p3726
sS'547022235'
p3727
VJohn Yong
p3728
sS'745548182'
p3729
VSzeto Kah Keong
p3730
sS'669654770'
p3731
VFan Yu Zhen
p3732
sS'601910818'
p3733
VLee Chu Yong Mark
p3734
sS'10150474572119771'
p3735
VChao Xu
p3736
saa(lp3737
S'10150474465649771'
p3738
aS'1324373784'
p3739
a(dp3740
S'1047768460'
p3741
VEvelyn He Xinyi
p3742
sS'745548182'
p3743
VSzeto Kah Keong
p3744
sS'10150474571669771'
p3745
VChao Xu
p3746
sS'832975103'
p3747
VAlvin Liew
p3748
sS'616283047'
p3749
VZheng Yi
p3750
sS'669654770'
p3751
VFan Yu Zhen
p3752
sS'601910818'
p3753
VLee Chu Yong Mark
p3754
sS'547022235'
p3755
VJohn Yong
p3756
saa(lp3757
S'10150474465144771'
p3758
aS'1324373746'
p3759
a(dp3760
S'1047768460'
p3761
VEvelyn He Xinyi
p3762
sS'735798259'
p3763
VLeong Zhao Hong
p3764
sS'745548182'
p3765
VSzeto Kah Keong
p3766
sS'832975103'
p3767
VAlvin Liew
p3768
sS'616283047'
p3769
VZheng Yi
p3770
sS'601910818'
p3771
VLee Chu Yong Mark
p3772
saa(lp3773
S'10150474465224771'
p3774
aS'1324373756'
p3775
a(dp3776
S'1047768460'
p3777
VEvelyn He Xinyi
p3778
sS'745548182'
p3779
VSzeto Kah Keong
p3780
sS'10150474571059771'
p3781
VChao Xu
p3782
sS'735798259'
p3783
VLeong Zhao Hong
p3784
sS'832975103'
p3785
VAlvin Liew
p3786
sS'616283047'
p3787
VZheng Yi
p3788
sS'601910818'
p3789
VLee Chu Yong Mark
p3790
sS'547022235'
p3791
VJohn Yong
p3792
saa(lp3793
S'10150474464769771'
p3794
aS'1324373726'
p3795
a(dp3796
S'1047768460'
p3797
VEvelyn He Xinyi
p3798
sS'735798259'
p3799
VLeong Zhao Hong
p3800
sS'100000513474595'
p3801
VTimothy Yap
p3802
sS'745548182'
p3803
VSzeto Kah Keong
p3804
sS'616283047'
p3805
VZheng Yi
p3806
sS'601910818'
p3807
VLee Chu Yong Mark
p3808
sS'547022235'
p3809
VJohn Yong
p3810
saa(lp3811
S'10150474465184771'
p3812
aS'1324373751'
p3813
a(dp3814
S'10150474570584771'
p3815
VChao Xu
p3816
sS'1047768460'
p3817
VEvelyn He Xinyi
p3818
sS'735798259'
p3819
VLeong Zhao Hong
p3820
sS'745548182'
p3821
VSzeto Kah Keong
p3822
sS'832975103'
p3823
VAlvin Liew
p3824
sS'601910818'
p3825
VLee Chu Yong Mark
p3826
sS'547022235'
p3827
VJohn Yong
p3828
saa(lp3829
S'10150474464689771'
p3830
aS'1324373721'
p3831
a(dp3832
S'1047768460'
p3833
VEvelyn He Xinyi
p3834
sS'735798259'
p3835
VLeong Zhao Hong
p3836
sS'100000513474595'
p3837
VTimothy Yap
p3838
sS'745548182'
p3839
VSzeto Kah Keong
p3840
sS'616283047'
p3841
VZheng Yi
p3842
sS'601910818'
p3843
VLee Chu Yong Mark
p3844
sS'547022235'
p3845
VJohn Yong
p3846
saa(lp3847
S'10150474464599771'
p3848
aS'1324373716'
p3849
a(dp3850
S'1047768460'
p3851
VEvelyn He Xinyi
p3852
sS'735798259'
p3853
VLeong Zhao Hong
p3854
sS'100000513474595'
p3855
VTimothy Yap
p3856
sS'745548182'
p3857
VSzeto Kah Keong
p3858
sS'832975103'
p3859
VAlvin Liew
p3860
sS'616283047'
p3861
VZheng Yi
p3862
sS'601910818'
p3863
VLee Chu Yong Mark
p3864
sS'547022235'
p3865
VJohn Yong
p3866
saa(lp3867
S'10150474464479771'
p3868
aS'1324373709'
p3869
a(dp3870
S'1047768460'
p3871
VEvelyn He Xinyi
p3872
sS'735798259'
p3873
VLeong Zhao Hong
p3874
sS'100000513474595'
p3875
VTimothy Yap
p3876
sS'745548182'
p3877
VSzeto Kah Keong
p3878
sS'832975103'
p3879
VAlvin Liew
p3880
sS'616283047'
p3881
VZheng Yi
p3882
sS'601910818'
p3883
VLee Chu Yong Mark
p3884
sS'547022235'
p3885
VJohn Yong
p3886
saa(lp3887
S'10150474464219771'
p3888
aS'1324373694'
p3889
a(dp3890
S'601910818'
p3891
VLee Chu Yong Mark
p3892
sS'745548182'
p3893
VSzeto Kah Keong
p3894
sS'832975103'
p3895
VAlvin Liew
p3896
sS'616283047'
p3897
VZheng Yi
p3898
saa(lp3899
S'10150474468544771'
p3900
aS'1324373961'
p3901
a(dp3902
S'601910818'
p3903
VLee Chu Yong Mark
p3904
sS'10150474566264771'
p3905
VChao Xu
p3906
sS'547022235'
p3907
VJohn Yong
p3908
saa(lp3909
S'10150474467599771'
p3910
aS'1324373902'
p3911
a(dp3912
S'1047768460'
p3913
VEvelyn He Xinyi
p3914
sS'735798259'
p3915
VLeong Zhao Hong
p3916
sS'100000513474595'
p3917
VTimothy Yap
p3918
sS'745548182'
p3919
VSzeto Kah Keong
p3920
sS'616283047'
p3921
VZheng Yi
p3922
sS'601910818'
p3923
VLee Chu Yong Mark
p3924
sS'547022235'
p3925
VJohn Yong
p3926
saa(lp3927
S'10150474466829771'
p3928
aS'1324373861'
p3929
a(dp3930
S'1047768460'
p3931
VEvelyn He Xinyi
p3932
sS'100000513474595'
p3933
VTimothy Yap
p3934
sS'745548182'
p3935
VSzeto Kah Keong
p3936
sS'832975103'
p3937
VAlvin Liew
p3938
sS'616283047'
p3939
VZheng Yi
p3940
sS'669654770'
p3941
VFan Yu Zhen
p3942
sS'601910818'
p3943
VLee Chu Yong Mark
p3944
sS'547022235'
p3945
VJohn Yong
p3946
saa(lp3947
S'10150474466744771'
p3948
aS'1324373854'
p3949
a(dp3950
S'1047768460'
p3951
VEvelyn He Xinyi
p3952
sS'100000513474595'
p3953
VTimothy Yap
p3954
sS'745548182'
p3955
VSzeto Kah Keong
p3956
sS'832975103'
p3957
VAlvin Liew
p3958
sS'616283047'
p3959
VZheng Yi
p3960
sS'601910818'
p3961
VLee Chu Yong Mark
p3962
sS'547022235'
p3963
VJohn Yong
p3964
saa(lp3965
S'10150474466629771'
p3966
aS'1324373848'
p3967
a(dp3968
S'1047768460'
p3969
VEvelyn He Xinyi
p3970
sS'735798259'
p3971
VLeong Zhao Hong
p3972
sS'100000513474595'
p3973
VTimothy Yap
p3974
sS'745548182'
p3975
VSzeto Kah Keong
p3976
sS'832975103'
p3977
VAlvin Liew
p3978
sS'616283047'
p3979
VZheng Yi
p3980
sS'601910818'
p3981
VLee Chu Yong Mark
p3982
sS'547022235'
p3983
VJohn Yong
p3984
saa(lp3985
S'10150474466529771'
p3986
aS'1324373840'
p3987
a(dp3988
S'1047768460'
p3989
VEvelyn He Xinyi
p3990
sS'735798259'
p3991
VLeong Zhao Hong
p3992
sS'100000513474595'
p3993
VTimothy Yap
p3994
sS'745548182'
p3995
VSzeto Kah Keong
p3996
sS'832975103'
p3997
VAlvin Liew
p3998
sS'616283047'
p3999
VZheng Yi
p4000
sS'601910818'
p4001
VLee Chu Yong Mark
p4002
sS'547022235'
p4003
VJohn Yong
p4004
saa(lp4005
S'10150474466359771'
p4006
aS'1324373828'
p4007
a(dp4008
S'1047768460'
p4009
VEvelyn He Xinyi
p4010
sS'735798259'
p4011
VLeong Zhao Hong
p4012
sS'100000513474595'
p4013
VTimothy Yap
p4014
sS'745548182'
p4015
VSzeto Kah Keong
p4016
sS'832975103'
p4017
VAlvin Liew
p4018
sS'616283047'
p4019
VZheng Yi
p4020
sS'601910818'
p4021
VLee Chu Yong Mark
p4022
sS'547022235'
p4023
VJohn Yong
p4024
saa(lp4025
S'10150474466219771'
p4026
aS'1324373817'
p4027
a(dp4028
S'1047768460'
p4029
VEvelyn He Xinyi
p4030
sS'735798259'
p4031
VLeong Zhao Hong
p4032
sS'100000513474595'
p4033
VTimothy Yap
p4034
sS'745548182'
p4035
VSzeto Kah Keong
p4036
sS'832975103'
p4037
VAlvin Liew
p4038
sS'616283047'
p4039
VZheng Yi
p4040
sS'601910818'
p4041
VLee Chu Yong Mark
p4042
sS'547022235'
p4043
VJohn Yong
p4044
saa(lp4045
S'10150474466079771'
p4046
aS'1324373812'
p4047
a(dp4048
S'1047768460'
p4049
VEvelyn He Xinyi
p4050
sS'735798259'
p4051
VLeong Zhao Hong
p4052
sS'100000513474595'
p4053
VTimothy Yap
p4054
sS'745548182'
p4055
VSzeto Kah Keong
p4056
sS'832975103'
p4057
VAlvin Liew
p4058
sS'616283047'
p4059
VZheng Yi
p4060
sS'669654770'
p4061
VFan Yu Zhen
p4062
sS'601910818'
p4063
VLee Chu Yong Mark
p4064
sS'547022235'
p4065
VJohn Yong
p4066
saa(lp4067
S'2560986737792'
p4068
aS'1324218967'
p4069
a(dp4070
S'601910818'
p4071
VLee Chu Yong Mark
p4072
sS'832975103'
p4073
VAlvin Liew
p4074
sS'735798259'
p4075
VLeong Zhao Hong
p4076
saa(lp4077
S'335638936463219'
p4078
aS'1324038641'
p4079
a(dp4080
S'1047768460'
p4081
VEvelyn He Xinyi
p4082
sS'735798259'
p4083
VLeong Zhao Hong
p4084
sS'100000513474595'
p4085
VTimothy Yap
p4086
sS'745548182'
p4087
VSzeto Kah Keong
p4088
sS'832975103'
p4089
VAlvin Liew
p4090
sS'616283047'
p4091
VZheng Yi
p4092
sS'601910818'
p4093
VLee Chu Yong Mark
p4094
sS'547022235'
p4095
VJohn Yong
p4096
saa(lp4097
S'335638919796554'
p4098
aS'1324038635'
p4099
a(dp4100
S'601910818'
p4101
VLee Chu Yong Mark
p4102
sS'735798259'
p4103
VLeong Zhao Hong
p4104
saa(lp4105
S'335638426463270'
p4106
aS'1324038579'
p4107
a(dp4108
S'1047768460'
p4109
VEvelyn He Xinyi
p4110
sS'735798259'
p4111
VLeong Zhao Hong
p4112
sS'100000513474595'
p4113
VTimothy Yap
p4114
sS'745548182'
p4115
VSzeto Kah Keong
p4116
sS'832975103'
p4117
VAlvin Liew
p4118
sS'616283047'
p4119
VZheng Yi
p4120
sS'601910818'
p4121
VLee Chu Yong Mark
p4122
sS'547022235'
p4123
VJohn Yong
p4124
saa(lp4125
S'335638533129926'
p4126
aS'1324038587'
p4127
a(dp4128
S'1047768460'
p4129
VEvelyn He Xinyi
p4130
sS'735798259'
p4131
VLeong Zhao Hong
p4132
sS'100000513474595'
p4133
VTimothy Yap
p4134
sS'745548182'
p4135
VSzeto Kah Keong
p4136
sS'832975103'
p4137
VAlvin Liew
p4138
sS'616283047'
p4139
VZheng Yi
p4140
sS'601910818'
p4141
VLee Chu Yong Mark
p4142
sS'547022235'
p4143
VJohn Yong
p4144
saa(lp4145
S'335638823129897'
p4146
aS'1324038622'
p4147
a(dp4148
S'1047768460'
p4149
VEvelyn He Xinyi
p4150
sS'335712369789209'
p4151
Vlong neck monster
p4152
sS'745548182'
p4153
VSzeto Kah Keong
p4154
sS'832975103'
p4155
VAlvin Liew
p4156
sS'616283047'
p4157
VZheng Yi
p4158
sS'601910818'
p4159
VLee Chu Yong Mark
p4160
sS'547022235'
p4161
VJohn Yong
p4162
saa(lp4163
S'335638956463217'
p4164
aS'1324038646'
p4165
a(dp4166
S'1047768460'
p4167
VEvelyn He Xinyi
p4168
sS'735798259'
p4169
VLeong Zhao Hong
p4170
sS'100000513474595'
p4171
VTimothy Yap
p4172
sS'745548182'
p4173
VSzeto Kah Keong
p4174
sS'832975103'
p4175
VAlvin Liew
p4176
sS'616283047'
p4177
VZheng Yi
p4178
sS'601910818'
p4179
VLee Chu Yong Mark
p4180
sS'547022235'
p4181
VJohn Yong
p4182
saa(lp4183
S'335639016463211'
p4184
aS'1324038653'
p4185
a(dp4186
S'1047768460'
p4187
VEvelyn He Xinyi
p4188
sS'735798259'
p4189
VLeong Zhao Hong
p4190
sS'100000513474595'
p4191
VTimothy Yap
p4192
sS'745548182'
p4193
VSzeto Kah Keong
p4194
sS'832975103'
p4195
VAlvin Liew
p4196
sS'616283047'
p4197
VZheng Yi
p4198
sS'601910818'
p4199
VLee Chu Yong Mark
p4200
sS'547022235'
p4201
VJohn Yong
p4202
saa(lp4203
S'193861424038009'
p4204
aS'1323874349'
p4205
a(dp4206
S'674806097'
p4207
VVanice Wong
p4208
sS'556300118'
p4209
VRachel Koh
p4210
sS'601910818'
p4211
VLee Chu Yong Mark
p4212
sS'646033821'
p4213
VSeah Chin Ying
p4214
sS'724443667'
p4215
VYang Kenneth Lu
p4216
saa(lp4217
S'193861187371366'
p4218
aS'1323874335'
p4219
a(dp4220
S'600967843'
p4221
VEdwin Liang
p4222
sS'601910818'
p4223
VLee Chu Yong Mark
p4224
sS'646033821'
p4225
VSeah Chin Ying
p4226
saa(lp4227
S'10150410176281447'
p4228
aS'1323840143'
p4229
a(dp4230
S'736201622'
p4231
VDarren Lum
p4232
sS'1047768460'
p4233
VEvelyn He Xinyi
p4234
sS'735798259'
p4235
VLeong Zhao Hong
p4236
sS'832975103'
p4237
VAlvin Liew
p4238
sS'10150410194866447'
p4239
VHtet Aung
p4240
sS'10150410195031447'
p4241
VChan Yarn Kit
p4242
sS'669654770'
p4243
VFan Yu Zhen
p4244
sS'601910818'
p4245
VLee Chu Yong Mark
p4246
sS'662111446'
p4247
VLim Chern Yuen
p4248
saa(lp4249
S'10150410173951447'
p4250
aS'1323840035'
p4251
a(dp4252
S'736201622'
p4253
VDarren Lum
p4254
sS'1047768460'
p4255
VEvelyn He Xinyi
p4256
sS'735798259'
p4257
VLeong Zhao Hong
p4258
sS'1651616676'
p4259
VLi Qizhu
p4260
sS'10150410190961447'
p4261
VChan Yarn Kit
p4262
sS'669654770'
p4263
VFan Yu Zhen
p4264
sS'601910818'
p4265
VLee Chu Yong Mark
p4266
sS'662111446'
p4267
VLim Chern Yuen
p4268
saa(lp4269
S'10150410172336447'
p4270
aS'1323839969'
p4271
a(dp4272
S'601910818'
p4273
VLee Chu Yong Mark
p4274
sS'662111446'
p4275
VLim Chern Yuen
p4276
sS'10150410184621447'
p4277
VChan Yarn Kit
p4278
saa(lp4279
S'10150523117830119'
p4280
aS'1323787729'
p4281
a(dp4282
S'556300118'
p4283
VRachel Koh
p4284
sS'601910818'
p4285
VLee Chu Yong Mark
p4286
sS'10150523125420119'
p4287
Vvalley
p4288
saa(lp4289
S'333600256667087'
p4290
aS'1323771272'
p4291
a(dp4292
S'736201622'
p4293
VDarren Lum
p4294
sS'1047768460'
p4295
VEvelyn He Xinyi
p4296
sS'735798259'
p4297
VLeong Zhao Hong
p4298
sS'832975103'
p4299
VAlvin Liew
p4300
sS'669654770'
p4301
VFan Yu Zhen
p4302
sS'601910818'
p4303
VLee Chu Yong Mark
p4304
sS'662111446'
p4305
VLim Chern Yuen
p4306
saa(lp4307
S'333600063333773'
p4308
aS'1323771268'
p4309
a(dp4310
S'736201622'
p4311
VDarren Lum
p4312
sS'1047768460'
p4313
VEvelyn He Xinyi
p4314
sS'735798259'
p4315
VLeong Zhao Hong
p4316
sS'832975103'
p4317
VAlvin Liew
p4318
sS'669654770'
p4319
VFan Yu Zhen
p4320
sS'601910818'
p4321
VLee Chu Yong Mark
p4322
sS'662111446'
p4323
VLim Chern Yuen
p4324
saa(lp4325
S'333599286667184'
p4326
aS'1323771255'
p4327
a(dp4328
S'100000513474595'
p4329
VTimothy Yap
p4330
sS'601910818'
p4331
VLee Chu Yong Mark
p4332
sS'745548182'
p4333
VSzeto Kah Keong
p4334
saa(lp4335
S'333589543334825'
p4336
aS'1323771055'
p4337
a(dp4338
S'100000513474595'
p4339
VTimothy Yap
p4340
sS'601910818'
p4341
VLee Chu Yong Mark
p4342
saa(lp4343
S'333584630001983'
p4344
aS'1323770941'
p4345
a(dp4346
S'100000513474595'
p4347
VTimothy Yap
p4348
sS'601910818'
p4349
VLee Chu Yong Mark
p4350
sS'735798259'
p4351
VLeong Zhao Hong
p4352
saa(lp4353
S'333584346668678'
p4354
aS'1323770937'
p4355
a(dp4356
S'601910818'
p4357
VLee Chu Yong Mark
p4358
sS'745548182'
p4359
VSzeto Kah Keong
p4360
sS'547022235'
p4361
VJohn Yong
p4362
saa(lp4363
S'333581673335612'
p4364
aS'1323770889'
p4365
a(dp4366
S'646142505'
p4367
VShawn Ng
p4368
sS'601910818'
p4369
VLee Chu Yong Mark
p4370
sS'832975103'
p4371
VAlvin Liew
p4372
sS'548517812'
p4373
VOng MurFei
p4374
saa(lp4375
S'333580086669104'
p4376
aS'1323770846'
p4377
a(dp4378
S'601910818'
p4379
VLee Chu Yong Mark
p4380
sS'704608128'
p4381
VPei Ling Chia
p4382
saa(lp4383
S'333579313335848'
p4384
aS'1323770779'
p4385
a(dp4386
S'646142505'
p4387
VShawn Ng
p4388
sS'601910818'
p4389
VLee Chu Yong Mark
p4390
saa(lp4391
S'333578876669225'
p4392
aS'1323770706'
p4393
a(dp4394
S'662111446'
p4395
VLim Chern Yuen
p4396
sS'601910818'
p4397
VLee Chu Yong Mark
p4398
sS'1369716924'
p4399
VValerie Lin Qianying
p4400
saa(lp4401
S'2533471369925'
p4402
aS'1323768435'
p4403
a(dp4404
S'736201622'
p4405
VDarren Lum
p4406
sS'1047768460'
p4407
VEvelyn He Xinyi
p4408
sS'1369716924'
p4409
VValerie Lin Qianying
p4410
sS'548517812'
p4411
VOng MurFei
p4412
sS'735798259'
p4413
VLeong Zhao Hong
p4414
sS'100000513474595'
p4415
VTimothy Yap
p4416
sS'648193181'
p4417
VHan Wei
p4418
sS'1651616676'
p4419
VLi Qizhu
p4420
sS'745548182'
p4421
VSzeto Kah Keong
p4422
sS'1070107257'
p4423
VYuyang Lei
p4424
sS'640066776'
p4425
VCao Yun
p4426
sS'616283047'
p4427
VZheng Yi
p4428
sS'646142505'
p4429
VShawn Ng
p4430
sS'669654770'
p4431
VFan Yu Zhen
p4432
sS'601910818'
p4433
VLee Chu Yong Mark
p4434
sS'662111446'
p4435
VLim Chern Yuen
p4436
sS'547022235'
p4437
VJohn Yong
p4438
sS'1086483192'
p4439
VHoang Lan David
p4440
saa(lp4441
S'10150433805480819'
p4442
aS'1323758031'
p4443
a(dp4444
S'1047768460'
p4445
VEvelyn He Xinyi
p4446
sS'1369716924'
p4447
VValerie Lin Qianying
p4448
sS'548517812'
p4449
VOng MurFei
p4450
sS'10150433997995819'
p4451
VHtet
p4452
sS'832975103'
p4453
VAlvin Liew
p4454
sS'601910818'
p4455
VLee Chu Yong Mark
p4456
sS'662111446'
p4457
VLim Chern Yuen
p4458
sS'547022235'
p4459
VJohn Yong
p4460
sS'1086483192'
p4461
VHoang Lan David
p4462
saa(lp4463
S'10150433823375819'
p4464
aS'1323759250'
p4465
a(dp4466
S'100002424577847'
p4467
VKarl Von Frisch
p4468
sS'646033821'
p4469
VSeah Chin Ying
p4470
sS'724443667'
p4471
VYang Kenneth Lu
p4472
sS'556300118'
p4473
VRachel Koh
p4474
sS'601910818'
p4475
VLee Chu Yong Mark
p4476
sS'674806097'
p4477
VVanice Wong
p4478
sS'575173882'
p4479
VNgo Wei Ze
p4480
saa(lp4481
S'10150433826985819'
p4482
aS'1323759508'
p4483
a(dp4484
S'600967843'
p4485
VEdwin Liang
p4486
sS'540632051'
p4487
VRicky Phang Hong Kee
p4488
sS'595277736'
p4489
VJun Yi Lee
p4490
sS'1476772218'
p4491
VHan Loong
p4492
sS'760604218'
p4493
VKliven Tan
p4494
sS'646033821'
p4495
VSeah Chin Ying
p4496
sS'758247561'
p4497
VSim Zhen Wei
p4498
sS'1344728347'
p4499
VErnest Wyatt
p4500
sS'716018254'
p4501
VNigel Ng Yingjie
p4502
sS'601910818'
p4503
VLee Chu Yong Mark
p4504
sS'547022235'
p4505
VJohn Yong
p4506
saa(lp4507
S'10150433826430819'
p4508
aS'1323759471'
p4509
a(dp4510
S'601910818'
p4511
VLee Chu Yong Mark
p4512
sS'758247561'
p4513
VSim Zhen Wei
p4514
saa(lp4515
S'10150433825990819'
p4516
aS'1323759452'
p4517
a(dp4518
S'601910818'
p4519
VLee Chu Yong Mark
p4520
sS'1476772218'
p4521
VHan Loong
p4522
saa(lp4523
S'10150433825745819'
p4524
aS'1323759434'
p4525
a(dp4526
S'601910818'
p4527
VLee Chu Yong Mark
p4528
sS'1476772218'
p4529
VHan Loong
p4530
saa(lp4531
S'10150433825455819'
p4532
aS'1323759404'
p4533
a(dp4534
S'601910818'
p4535
VLee Chu Yong Mark
p4536
sS'648193181'
p4537
VHan Wei
p4538
saa(lp4539
S'10150433825015819'
p4540
aS'1323759371'
p4541
a(dp4542
S'736201622'
p4543
VDarren Lum
p4544
sS'1047768460'
p4545
VEvelyn He Xinyi
p4546
sS'735798259'
p4547
VLeong Zhao Hong
p4548
sS'640066776'
p4549
VCao Yun
p4550
sS'832975103'
p4551
VAlvin Liew
p4552
sS'669654770'
p4553
VFan Yu Zhen
p4554
sS'601910818'
p4555
VLee Chu Yong Mark
p4556
sS'662111446'
p4557
VLim Chern Yuen
p4558
saa(lp4559
S'10150433824700819'
p4560
aS'1323759353'
p4561
a(dp4562
S'735798259'
p4563
VLeong Zhao Hong
p4564
sS'640066776'
p4565
VCao Yun
p4566
sS'648193181'
p4567
VHan Wei
p4568
sS'745548182'
p4569
VSzeto Kah Keong
p4570
sS'10150434010875819'
p4571
VShen Zeyu
p4572
sS'1086483192'
p4573
VHoang Lan David
p4574
sS'736201622'
p4575
VDarren Lum
p4576
sS'1047768460'
p4577
VEvelyn He Xinyi
p4578
sS'1369716924'
p4579
VValerie Lin Qianying
p4580
sS'100000513474595'
p4581
VTimothy Yap
p4582
sS'1783735497'
p4583
V\u9ec4\u677e\u9e4f
p4584
sS'832975103'
p4585
VAlvin Liew
p4586
sS'1070107257'
p4587
VYuyang Lei
p4588
sS'646142505'
p4589
VShawn Ng
p4590
sS'669654770'
p4591
VFan Yu Zhen
p4592
sS'601910818'
p4593
VLee Chu Yong Mark
p4594
sS'10150434010110819'
p4595
VChan Yarn Kit
p4596
sS'548517812'
p4597
VOng MurFei
p4598
sS'10150434010045819'
p4599
VKyaw Htet Aung
p4600
sS'662111446'
p4601
VLim Chern Yuen
p4602
sS'1651616676'
p4603
VLi Qizhu
p4604
sS'10150434009850819'
p4605
VLi Anjie
p4606
sS'10150434009950819'
p4607
VTay Chao Xu
p4608
sS'616283047'
p4609
VZheng Yi
p4610
sS'547022235'
p4611
VJohn Yong
p4612
saa(lp4613
S'10150433824200819'
p4614
aS'1323759319'
p4615
a(dp4616
S'646142505'
p4617
VShawn Ng
p4618
sS'616283047'
p4619
VZheng Yi
p4620
sS'601910818'
p4621
VLee Chu Yong Mark
p4622
sS'832975103'
p4623
VAlvin Liew
p4624
sS'548517812'
p4625
VOng MurFei
p4626
saa(lp4627
S'10150433823980819'
p4628
aS'1323759301'
p4629
a(dp4630
S'601910818'
p4631
VLee Chu Yong Mark
p4632
sS'1628632737'
p4633
VBradley Soh
p4634
saa(lp4635
S'10150433823770819'
p4636
aS'1323759285'
p4637
a(dp4638
S'556513771'
p4639
VTroy Tan
p4640
sS'601910818'
p4641
VLee Chu Yong Mark
p4642
saa(lp4643
S'10150433823580819'
p4644
aS'1323759268'
p4645
a(dp4646
S'601910818'
p4647
VLee Chu Yong Mark
p4648
sS'1344728347'
p4649
VErnest Wyatt
p4650
saa(lp4651
S'10150433822955819'
p4652
aS'1323759215'
p4653
a(dp4654
S'600967843'
p4655
VEdwin Liang
p4656
sS'601910818'
p4657
VLee Chu Yong Mark
p4658
saa(lp4659
S'10150433822770819'
p4660
aS'1323759198'
p4661
a(dp4662
S'600967843'
p4663
VEdwin Liang
p4664
sS'556300118'
p4665
VRachel Koh
p4666
sS'601910818'
p4667
VLee Chu Yong Mark
p4668
saa(lp4669
S'10150433822375819'
p4670
aS'1323759180'
p4671
a(dp4672
S'600967843'
p4673
VEdwin Liang
p4674
sS'646033821'
p4675
VSeah Chin Ying
p4676
sS'601910818'
p4677
VLee Chu Yong Mark
p4678
sS'100002424577847'
p4679
VKarl Von Frisch
p4680
saa(lp4681
S'10150433822000819'
p4682
aS'1323759161'
p4683
a(dp4684
S'600967843'
p4685
VEdwin Liang
p4686
sS'646033821'
p4687
VSeah Chin Ying
p4688
sS'601910818'
p4689
VLee Chu Yong Mark
p4690
sS'100002424577847'
p4691
VKarl Von Frisch
p4692
saa(lp4693
S'10150433819705819'
p4694
aS'1323759027'
p4695
a(dp4696
S'646142505'
p4697
VShawn Ng
p4698
sS'601910818'
p4699
VLee Chu Yong Mark
p4700
saa(lp4701
S'10150433819505819'
p4702
aS'1323759008'
p4703
a(dp4704
S'601910818'
p4705
VLee Chu Yong Mark
p4706
sS'1086483192'
p4707
VHoang Lan David
p4708
saa(lp4709
S'10150433818985819'
p4710
aS'1323758971'
p4711
a(dp4712
S'601910818'
p4713
VLee Chu Yong Mark
p4714
sS'616283047'
p4715
VZheng Yi
p4716
saa(lp4717
S'10150433817610819'
p4718
aS'1323758875'
p4719
a(dp4720
S'669654770'
p4721
VFan Yu Zhen
p4722
sS'601910818'
p4723
VLee Chu Yong Mark
p4724
saa(lp4725
S'10150433817355819'
p4726
aS'1323758854'
p4727
a(dp4728
S'669654770'
p4729
VFan Yu Zhen
p4730
sS'601910818'
p4731
VLee Chu Yong Mark
p4732
saa(lp4733
S'10150433817045819'
p4734
aS'1323758831'
p4735
a(dp4736
S'601910818'
p4737
VLee Chu Yong Mark
p4738
sS'1047768460'
p4739
VEvelyn He Xinyi
p4740
saa(lp4741
S'10150433811360819'
p4742
aS'1323758436'
p4743
a(dp4744
S'601910818'
p4745
VLee Chu Yong Mark
p4746
sS'662111446'
p4747
VLim Chern Yuen
p4748
sS'1086483192'
p4749
VHoang Lan David
p4750
saa(lp4751
S'10150433809845819'
p4752
aS'1323758337'
p4753
a(dp4754
S'601910818'
p4755
VLee Chu Yong Mark
p4756
sS'745548182'
p4757
VSzeto Kah Keong
p4758
saa(lp4759
S'10150433806805819'
p4760
aS'1323758127'
p4761
a(dp4762
S'601910818'
p4763
VLee Chu Yong Mark
p4764
sS'646033821'
p4765
VSeah Chin Ying
p4766
saa(lp4767
S'10150433806560819'
p4768
aS'1323758110'
p4769
a(dp4770
S'601910818'
p4771
VLee Chu Yong Mark
p4772
sS'832975103'
p4773
VAlvin Liew
p4774
saa(lp4775
S'2811477770643'
p4776
aS'1323735302'
p4777
a(dp4778
S'601910818'
p4779
VLee Chu Yong Mark
p4780
sS'1369716924'
p4781
VValerie Lin Qianying
p4782
saa(lp4783
S'2811475250580'
p4784
aS'1323735284'
p4785
a(dp4786
S'601910818'
p4787
VLee Chu Yong Mark
p4788
sS'1369716924'
p4789
VValerie Lin Qianying
p4790
saa(lp4791
S'2811474570563'
p4792
aS'1323735277'
p4793
a(dp4794
S'601910818'
p4795
VLee Chu Yong Mark
p4796
sS'735798259'
p4797
VLeong Zhao Hong
p4798
saa(lp4799
S'2811426649365'
p4800
aS'1323734903'
p4801
a(dp4802
S'736201622'
p4803
VDarren Lum
p4804
sS'1369716924'
p4805
VValerie Lin Qianying
p4806
sS'548517812'
p4807
VOng MurFei
p4808
sS'648193181'
p4809
VHan Wei
p4810
sS'832975103'
p4811
VAlvin Liew
p4812
sS'616283047'
p4813
VZheng Yi
p4814
sS'646142505'
p4815
VShawn Ng
p4816
sS'601910818'
p4817
VLee Chu Yong Mark
p4818
sS'547022235'
p4819
VJohn Yong
p4820
saa(lp4821
S'10150468106007236'
p4822
aS'1323709074'
p4823
a(dp4824
S'1047768460'
p4825
VEvelyn He Xinyi
p4826
sS'735798259'
p4827
VLeong Zhao Hong
p4828
sS'100000513474595'
p4829
VTimothy Yap
p4830
sS'745548182'
p4831
VSzeto Kah Keong
p4832
sS'832975103'
p4833
VAlvin Liew
p4834
sS'646142505'
p4835
VShawn Ng
p4836
sS'669654770'
p4837
VFan Yu Zhen
p4838
sS'601910818'
p4839
VLee Chu Yong Mark
p4840
sS'662111446'
p4841
VLim Chern Yuen
p4842
sS'547022235'
p4843
VJohn Yong
p4844
sS'1086483192'
p4845
VHoang Lan David
p4846
saa(lp4847
S'10150468105807236'
p4848
aS'1323709069'
p4849
a(dp4850
S'1047768460'
p4851
VEvelyn He Xinyi
p4852
sS'735798259'
p4853
VLeong Zhao Hong
p4854
sS'100000513474595'
p4855
VTimothy Yap
p4856
sS'745548182'
p4857
VSzeto Kah Keong
p4858
sS'832975103'
p4859
VAlvin Liew
p4860
sS'646142505'
p4861
VShawn Ng
p4862
sS'669654770'
p4863
VFan Yu Zhen
p4864
sS'601910818'
p4865
VLee Chu Yong Mark
p4866
sS'662111446'
p4867
VLim Chern Yuen
p4868
sS'547022235'
p4869
VJohn Yong
p4870
sS'1086483192'
p4871
VHoang Lan David
p4872
saa(lp4873
S'10150457787389771'
p4874
aS'1323709787'
p4875
a(dp4876
S'100000513474595'
p4877
VTimothy Yap
p4878
sS'601910818'
p4879
VLee Chu Yong Mark
p4880
sS'662111446'
p4881
VLim Chern Yuen
p4882
sS'832975103'
p4883
VAlvin Liew
p4884
saa(lp4885
S'10150457785449771'
p4886
aS'1323709749'
p4887
a(dp4888
S'1047768460'
p4889
VEvelyn He Xinyi
p4890
sS'100000513474595'
p4891
VTimothy Yap
p4892
sS'1651616676'
p4893
VLi Qizhu
p4894
sS'1070107257'
p4895
VYuyang Lei
p4896
sS'601910818'
p4897
VLee Chu Yong Mark
p4898
sS'547022235'
p4899
VJohn Yong
p4900
saa(lp4901
S'10150457784524771'
p4902
aS'1323709719'
p4903
a(dp4904
S'601910818'
p4905
VLee Chu Yong Mark
p4906
sS'1047768460'
p4907
VEvelyn He Xinyi
p4908
saa(lp4909
S'10150468101662236'
p4910
aS'1323708973'
p4911
a(dp4912
S'601910818'
p4913
VLee Chu Yong Mark
p4914
sS'547022235'
p4915
VJohn Yong
p4916
saa(lp4917
S'10150450120949771'
p4918
aS'1323501375'
p4919
a(dp4920
S'100000513474595'
p4921
VTimothy Yap
p4922
sS'745548182'
p4923
VSzeto Kah Keong
p4924
sS'832975103'
p4925
VAlvin Liew
p4926
sS'616283047'
p4927
VZheng Yi
p4928
sS'601910818'
p4929
VLee Chu Yong Mark
p4930
sS'662111446'
p4931
VLim Chern Yuen
p4932
sS'1086483192'
p4933
VHoang Lan David
p4934
saa(lp4935
S'10150450110629771'
p4936
aS'1323500979'
p4937
a(dp4938
S'601910818'
p4939
VLee Chu Yong Mark
p4940
sS'662111446'
p4941
VLim Chern Yuen
p4942
saa(lp4943
S'10150450081019771'
p4944
aS'1323499399'
p4945
a(dp4946
S'646142505'
p4947
VShawn Ng
p4948
sS'601910818'
p4949
VLee Chu Yong Mark
p4950
sS'662111446'
p4951
VLim Chern Yuen
p4952
saa(lp4953
S'2512131316437'
p4954
aS'1323485820'
p4955
a(dp4956
S'2514426813823'
p4957
Vcard tower
p4958
sS'724443667'
p4959
VYang Kenneth Lu
p4960
sS'601910818'
p4961
VLee Chu Yong Mark
p4962
sS'616283047'
p4963
VZheng Yi
p4964
saa(lp4965
S'2512133556493'
p4966
aS'1323485846'
p4967
a(dp4968
S'724443667'
p4969
VYang Kenneth Lu
p4970
sS'601910818'
p4971
VLee Chu Yong Mark
p4972
saa(lp4973
S'2512133116482'
p4974
aS'1323485843'
p4975
a(dp4976
S'724443667'
p4977
VYang Kenneth Lu
p4978
sS'601910818'
p4979
VLee Chu Yong Mark
p4980
saa(lp4981
S'2512131996454'
p4982
aS'1323485827'
p4983
a(dp4984
S'736201622'
p4985
VDarren Lum
p4986
sS'735798259'
p4987
VLeong Zhao Hong
p4988
sS'640066776'
p4989
VCao Yun
p4990
sS'669654770'
p4991
VFan Yu Zhen
p4992
sS'601910818'
p4993
VLee Chu Yong Mark
p4994
sS'662111446'
p4995
VLim Chern Yuen
p4996
saa(lp4997
S'329405490419897'
p4998
aS'1323308585'
p4999
a(dp5000
S'646142505'
p5001
VShawn Ng
p5002
sS'736201622'
p5003
VDarren Lum
p5004
sS'601910818'
p5005
VLee Chu Yong Mark
p5006
sS'735798259'
p5007
VLeong Zhao Hong
p5008
saa(lp5009
S'329405447086568'
p5010
aS'1323308579'
p5011
a(dp5012
S'736201622'
p5013
VDarren Lum
p5014
sS'601910818'
p5015
VLee Chu Yong Mark
p5016
sS'735798259'
p5017
VLeong Zhao Hong
p5018
saa(lp5019
S'329405207086592'
p5020
aS'1323308555'
p5021
a(dp5022
S'601910818'
p5023
VLee Chu Yong Mark
p5024
sS'745548182'
p5025
VSzeto Kah Keong
p5026
saa(lp5027
S'329405027086610'
p5028
aS'1323308537'
p5029
a(dp5030
S'601910818'
p5031
VLee Chu Yong Mark
p5032
sS'1086483192'
p5033
VHoang Lan David
p5034
saa(lp5035
S'327516743942105'
p5036
aS'1323101233'
p5037
a(dp5038
S'735798259'
p5039
VLeong Zhao Hong
p5040
sS'100000513474595'
p5041
VTimothy Yap
p5042
sS'745548182'
p5043
VSzeto Kah Keong
p5044
sS'832975103'
p5045
VAlvin Liew
p5046
sS'616283047'
p5047
VZheng Yi
p5048
sS'601910818'
p5049
VLee Chu Yong Mark
p5050
sS'662111446'
p5051
VLim Chern Yuen
p5052
sS'547022235'
p5053
VJohn Yong
p5054
sS'1086483192'
p5055
VHoang Lan David
p5056
saa(lp5057
S'2495306335597'
p5058
aS'1322205701'
p5059
a(dp5060
S'764764485'
p5061
VHui Min
p5062
sS'608809757'
p5063
VClarice Lim
p5064
sS'100000288074370'
p5065
VDerrick Lim
p5066
sS'1126036458'
p5067
VAlicia Wong
p5068
sS'731329421'
p5069
VYee Hui Leong
p5070
sS'1389777357'
p5071
VRay Yan
p5072
sS'646033821'
p5073
VSeah Chin Ying
p5074
sS'724443667'
p5075
VYang Kenneth Lu
p5076
sS'738845948'
p5077
VVanessa Goh
p5078
sS'1219042553'
p5079
VEdmund Lau Jia Hao
p5080
sS'761253674'
p5081
VDexter Tsering Jampa Sim
p5082
sS'1040983702'
p5083
VNg Yan Hong
p5084
sS'569814755'
p5085
VTan Shao Yun
p5086
sS'601910818'
p5087
VLee Chu Yong Mark
p5088
saa(lp5089
S'10150390374920949'
p5090
aS'1322239147'
p5091
a(dp5092
S'674806097'
p5093
VVanice Wong
p5094
sS'601910818'
p5095
VLee Chu Yong Mark
p5096
sS'646033821'
p5097
VSeah Chin Ying
p5098
saa(lp5099
S'2518637649823'
p5100
aS'1319210068'
p5101
a(dp5102
S'736201622'
p5103
VDarren Lum
p5104
sS'601910818'
p5105
VLee Chu Yong Mark
p5106
sS'735798259'
p5107
VLeong Zhao Hong
p5108
saa(lp5109
S'2518618289339'
p5110
aS'1319209770'
p5111
a(dp5112
S'1369716924'
p5113
VValerie Lin Qianying
p5114
sS'548517812'
p5115
VOng MurFei
p5116
sS'648193181'
p5117
VHan Wei
p5118
sS'832975103'
p5119
VAlvin Liew
p5120
sS'616283047'
p5121
VZheng Yi
p5122
sS'646142505'
p5123
VShawn Ng
p5124
sS'601910818'
p5125
VLee Chu Yong Mark
p5126
sS'1086483192'
p5127
VHoang Lan David
p5128
saa(lp5129
S'10150346947515819'
p5130
aS'1319210134'
p5131
a(dp5132
S'601910818'
p5133
VLee Chu Yong Mark
p5134
sS'1086483192'
p5135
VHoang Lan David
p5136
sS'735798259'
p5137
VLeong Zhao Hong
p5138
saa(lp5139
S'10150346982600819'
p5140
aS'1319212098'
p5141
a(dp5142
S'601910818'
p5143
VLee Chu Yong Mark
p5144
sS'1086483192'
p5145
VHoang Lan David
p5146
saa(lp5147
S'10150346981500819'
p5148
aS'1319212020'
p5149
a(dp5150
S'736201622'
p5151
VDarren Lum
p5152
sS'601910818'
p5153
VLee Chu Yong Mark
p5154
saa(lp5155
S'10150346979695819'
p5156
aS'1319211889'
p5157
a(dp5158
S'669654770'
p5159
VFan Yu Zhen
p5160
sS'601910818'
p5161
VLee Chu Yong Mark
p5162
saa(lp5163
S'10150346979225819'
p5164
aS'1319211859'
p5165
a(dp5166
S'669654770'
p5167
VFan Yu Zhen
p5168
sS'601910818'
p5169
VLee Chu Yong Mark
p5170
saa(lp5171
S'10150346976660819'
p5172
aS'1319211709'
p5173
a(dp5174
S'601910818'
p5175
VLee Chu Yong Mark
p5176
sS'1047768460'
p5177
VEvelyn He Xinyi
p5178
saa(lp5179
S'10150346970300819'
p5180
aS'1319211329'
p5181
a(dp5182
S'601910818'
p5183
VLee Chu Yong Mark
p5184
sS'100000513474595'
p5185
VTimothy Yap
p5186
sS'832975103'
p5187
VAlvin Liew
p5188
sS'547022235'
p5189
VJohn Yong
p5190
saa(lp5191
S'10150346969895819'
p5192
aS'1319211304'
p5193
a(dp5194
S'601910818'
p5195
VLee Chu Yong Mark
p5196
sS'547022235'
p5197
VJohn Yong
p5198
saa(lp5199
S'10150346968825819'
p5200
aS'1319211252'
p5201
a(dp5202
S'601910818'
p5203
VLee Chu Yong Mark
p5204
sS'100000513474595'
p5205
VTimothy Yap
p5206
sS'616283047'
p5207
VZheng Yi
p5208
saa(lp5209
S'10150346966645819'
p5210
aS'1319211162'
p5211
a(dp5212
S'662111446'
p5213
VLim Chern Yuen
p5214
sS'601910818'
p5215
VLee Chu Yong Mark
p5216
sS'648193181'
p5217
VHan Wei
p5218
sS'548517812'
p5219
VOng MurFei
p5220
saa(lp5221
S'10150346963935819'
p5222
aS'1319211054'
p5223
a(dp5224
S'601910818'
p5225
VLee Chu Yong Mark
p5226
sS'1070107257'
p5227
VYuyang Lei
p5228
saa(lp5229
S'10150346962430819'
p5230
aS'1319210962'
p5231
a(dp5232
S'646142505'
p5233
VShawn Ng
p5234
sS'601910818'
p5235
VLee Chu Yong Mark
p5236
sS'832975103'
p5237
VAlvin Liew
p5238
sS'1086483192'
p5239
VHoang Lan David
p5240
saa(lp5241
S'10150346959880819'
p5242
aS'1319210803'
p5243
a(dp5244
S'1783735497'
p5245
V\u9ec4\u677e\u9e4f
p5246
sS'601910818'
p5247
VLee Chu Yong Mark
p5248
sS'100000513474595'
p5249
VTimothy Yap
p5250
sS'745548182'
p5251
VSzeto Kah Keong
p5252
saa(lp5253
S'10150346955010819'
p5254
aS'1319210508'
p5255
a(dp5256
S'1047768460'
p5257
VEvelyn He Xinyi
p5258
sS'648193181'
p5259
VHan Wei
p5260
sS'1783735497'
p5261
V\u9ec4\u677e\u9e4f
p5262
sS'745548182'
p5263
VSzeto Kah Keong
p5264
sS'616283047'
p5265
VZheng Yi
p5266
sS'646142505'
p5267
VShawn Ng
p5268
sS'669654770'
p5269
VFan Yu Zhen
p5270
sS'601910818'
p5271
VLee Chu Yong Mark
p5272
sS'1086483192'
p5273
VHoang Lan David
p5274
saa(lp5275
S'10150346954475819'
p5276
aS'1319210478'
p5277
a(dp5278
S'646142505'
p5279
VShawn Ng
p5280
sS'601910818'
p5281
VLee Chu Yong Mark
p5282
saa(lp5283
S'10150346952665819'
p5284
aS'1319210367'
p5285
a(dp5286
S'736201622'
p5287
VDarren Lum
p5288
sS'601910818'
p5289
VLee Chu Yong Mark
p5290
saa(lp5291
S'10150346950705819'
p5292
aS'1319210290'
p5293
a(dp5294
S'646142505'
p5295
VShawn Ng
p5296
sS'736201622'
p5297
VDarren Lum
p5298
sS'601910818'
p5299
VLee Chu Yong Mark
p5300
sS'832975103'
p5301
VAlvin Liew
p5302
sS'1086483192'
p5303
VHoang Lan David
p5304
saa(lp5305
S'10150346950205819'
p5306
aS'1319210259'
p5307
a(dp5308
S'736201622'
p5309
VDarren Lum
p5310
sS'601910818'
p5311
VLee Chu Yong Mark
p5312
saa(lp5313
S'10150346949455819'
p5314
aS'1319210224'
p5315
a(dp5316
S'736201622'
p5317
VDarren Lum
p5318
sS'601910818'
p5319
VLee Chu Yong Mark
p5320
sS'832975103'
p5321
VAlvin Liew
p5322
saa(lp5323
S'10150346947920819'
p5324
aS'1319210161'
p5325
a(dp5326
S'601910818'
p5327
VLee Chu Yong Mark
p5328
sS'745548182'
p5329
VSzeto Kah Keong
p5330
sS'832975103'
p5331
VAlvin Liew
p5332
saa(lp5333
S'10150346947095819'
p5334
aS'1319210110'
p5335
a(dp5336
S'601910818'
p5337
VLee Chu Yong Mark
p5338
sS'662111446'
p5339
VLim Chern Yuen
p5340
sS'1086483192'
p5341
VHoang Lan David
p5342
sS'735798259'
p5343
VLeong Zhao Hong
p5344
saa(lp5345
S'10150368755808048'
p5346
aS'1319260139'
p5347
a(dp5348
S'601910818'
p5349
VLee Chu Yong Mark
p5350
sS'616283047'
p5351
VZheng Yi
p5352
saa(lp5353
S'10150368754228048'
p5354
aS'1319259985'
p5355
a(dp5356
S'646142505'
p5357
VShawn Ng
p5358
sS'736201622'
p5359
VDarren Lum
p5360
sS'601910818'
p5361
VLee Chu Yong Mark
p5362
sS'832975103'
p5363
VAlvin Liew
p5364
sS'1086483192'
p5365
VHoang Lan David
p5366
saa(lp5367
S'10150368754128048'
p5368
aS'1319259975'
p5369
a(dp5370
S'646142505'
p5371
VShawn Ng
p5372
sS'736201622'
p5373
VDarren Lum
p5374
sS'601910818'
p5375
VLee Chu Yong Mark
p5376
sS'832975103'
p5377
VAlvin Liew
p5378
sS'1086483192'
p5379
VHoang Lan David
p5380
saa(lp5381
S'10150346962065819'
p5382
aS'1319210937'
p5383
a(dp5384
S'646142505'
p5385
VShawn Ng
p5386
sS'601910818'
p5387
VLee Chu Yong Mark
p5388
sS'832975103'
p5389
VAlvin Liew
p5390
sS'1086483192'
p5391
VHoang Lan David
p5392
saa(lp5393
S'10150346948680819'
p5394
aS'1319210191'
p5395
a(dp5396
S'601910818'
p5397
VLee Chu Yong Mark
p5398
sS'100000513474595'
p5399
VTimothy Yap
p5400
sS'745548182'
p5401
VSzeto Kah Keong
p5402
sS'832975103'
p5403
VAlvin Liew
p5404
sS'547022235'
p5405
VJohn Yong
p5406
saa(lp5407
S'10150346961255819'
p5408
aS'1319210894'
p5409
a(dp5410
S'548517812'
p5411
VOng MurFei
p5412
sS'648193181'
p5413
VHan Wei
p5414
sS'832975103'
p5415
VAlvin Liew
p5416
sS'616283047'
p5417
VZheng Yi
p5418
sS'646142505'
p5419
VShawn Ng
p5420
sS'601910818'
p5421
VLee Chu Yong Mark
p5422
sS'1086483192'
p5423
VHoang Lan David
p5424
saa(lp5425
S'10150346982990819'
p5426
aS'1319212126'
p5427
a(dp5428
S'601910818'
p5429
VLee Chu Yong Mark
p5430
sS'704608128'
p5431
VPei Ling Chia
p5432
saa(lp5433
S'10150346964850819'
p5434
aS'1319211095'
p5435
a(dp5436
S'735798259'
p5437
VLeong Zhao Hong
p5438
sS'648193181'
p5439
VHan Wei
p5440
sS'1783735497'
p5441
V\u9ec4\u677e\u9e4f
p5442
sS'832975103'
p5443
VAlvin Liew
p5444
sS'1070107257'
p5445
VYuyang Lei
p5446
sS'646142505'
p5447
VShawn Ng
p5448
sS'669654770'
p5449
VFan Yu Zhen
p5450
sS'601910818'
p5451
VLee Chu Yong Mark
p5452
saa(lp5453
S'2518636729800'
p5454
aS'1319210052'
p5455
a(dp5456
S'2518727292064'
p5457
Vchao yu
p5458
sS'601910818'
p5459
VLee Chu Yong Mark
p5460
sS'745548182'
p5461
VSzeto Kah Keong
p5462
sS'735798259'
p5463
VLeong Zhao Hong
p5464
saa(lp5465
S'2518631329665'
p5466
aS'1319209964'
p5467
a(dp5468
S'2518722091934'
p5469
Vyarn kit
p5470
sS'601910818'
p5471
VLee Chu Yong Mark
p5472
sS'1369716924'
p5473
VValerie Lin Qianying
p5474
saa(lp5475
S'2518619889379'
p5476
aS'1319209795'
p5477
a(dp5478
S'736201622'
p5479
VDarren Lum
p5480
sS'1047768460'
p5481
VEvelyn He Xinyi
p5482
sS'1369716924'
p5483
VValerie Lin Qianying
p5484
sS'548517812'
p5485
VOng MurFei
p5486
sS'735798259'
p5487
VLeong Zhao Hong
p5488
sS'2518713531720'
p5489
Vsong peng
p5490
sS'100000513474595'
p5491
VTimothy Yap
p5492
sS'648193181'
p5493
VHan Wei
p5494
sS'1783735497'
p5495
V\u9ec4\u677e\u9e4f
p5496
sS'2518708811602'
p5497
Vanjie
p5498
sS'745548182'
p5499
VSzeto Kah Keong
p5500
sS'1070107257'
p5501
VYuyang Lei
p5502
sS'832975103'
p5503
VAlvin Liew
p5504
sS'616283047'
p5505
VZheng Yi
p5506
sS'646142505'
p5507
VShawn Ng
p5508
sS'669654770'
p5509
VFan Yu Zhen
p5510
sS'601910818'
p5511
VLee Chu Yong Mark
p5512
sS'662111446'
p5513
VLim Chern Yuen
p5514
sS'547022235'
p5515
VJohn Yong
p5516
sS'1086483192'
p5517
VHoang Lan David
p5518
saa(lp5519
S'2518616969306'
p5520
aS'1319209758'
p5521
a(dp5522
S'1369716924'
p5523
VValerie Lin Qianying
p5524
sS'548517812'
p5525
VOng MurFei
p5526
sS'648193181'
p5527
VHan Wei
p5528
sS'832975103'
p5529
VAlvin Liew
p5530
sS'616283047'
p5531
VZheng Yi
p5532
sS'646142505'
p5533
VShawn Ng
p5534
sS'601910818'
p5535
VLee Chu Yong Mark
p5536
sS'1086483192'
p5537
VHoang Lan David
p5538
saa(lp5539
S'10150399702745119'
p5540
aS'1317564244'
p5541
a(dp5542
S'100002424577847'
p5543
VKarl Von Frisch
p5544
sS'706816684'
p5545
VDaniel Wong
p5546
sS'734197284'
p5547
VMarie Dominique Chen
p5548
sS'711049781'
p5549
VJay See Tow
p5550
sS'724443667'
p5551
VYang Kenneth Lu
p5552
sS'1082054193'
p5553
VSue Zheng Hao
p5554
sS'601910818'
p5555
VLee Chu Yong Mark
p5556
sS'690091106'
p5557
VChen Siheng
p5558
saa(lp5559
S'249261681767612'
p5560
aS'1310655590'
p5561
a(dp5562
S'601910818'
p5563
VLee Chu Yong Mark
p5564
sS'616283047'
p5565
VZheng Yi
p5566
saa(lp5567
S'10150264212487236'
p5568
aS'1310547036'
p5569
a(dp5570
S'736201622'
p5571
VDarren Lum
p5572
sS'1047768460'
p5573
VEvelyn He Xinyi
p5574
sS'1369716924'
p5575
VValerie Lin Qianying
p5576
sS'735798259'
p5577
VLeong Zhao Hong
p5578
sS'548517812'
p5579
VOng MurFei
p5580
sS'100000513474595'
p5581
VTimothy Yap
p5582
sS'745548182'
p5583
VSzeto Kah Keong
p5584
sS'1070107257'
p5585
VYuyang Lei
p5586
sS'832975103'
p5587
VAlvin Liew
p5588
sS'616283047'
p5589
VZheng Yi
p5590
sS'601910818'
p5591
VLee Chu Yong Mark
p5592
sS'547022235'
p5593
VJohn Yong
p5594
saa(lp5595
S'2159346112985'
p5596
aS'1310474476'
p5597
a(dp5598
S'731623014'
p5599
VAdrian Tan
p5600
sS'600967843'
p5601
VEdwin Liang
p5602
sS'1526516271'
p5603
VWong Yi Ren
p5604
sS'1564791316'
p5605
VTan Yeh Wen
p5606
sS'597953715'
p5607
VHee Jia Yun
p5608
sS'671058646'
p5609
VEng Way Yeo
p5610
sS'100000684974223'
p5611
VIan Tan
p5612
sS'617958231'
p5613
VYuan Yi Di
p5614
sS'1245013893'
p5615
VWu Youzi
p5616
sS'631959889'
p5617
VDuo Geng Goh
p5618
sS'773628884'
p5619
VDarius Chan
p5620
sS'652213463'
p5621
VShawn Teo
p5622
sS'565246891'
p5623
VJessica Choo
p5624
sS'1295853925'
p5625
VAz Elaine
p5626
sS'601493410'
p5627
VNobel Ng
p5628
sS'566622887'
p5629
VBenjamin Huang
p5630
sS'1383384521'
p5631
VWong Cf
p5632
sS'601910818'
p5633
VLee Chu Yong Mark
p5634
sS'730971721'
p5635
VAng Yijia
p5636
sS'1255907796'
p5637
VAnny Qin Shuhan
p5638
sS'594078037'
p5639
VSiHeng Yeo
p5640
saa(lp5641
S'10150247143464573'
p5642
aS'1310045256'
p5643
a(dp5644
S'600967843'
p5645
VEdwin Liang
p5646
sS'648488998'
p5647
VYan Seng Lim
p5648
sS'745598388'
p5649
VLee Kah How
p5650
sS'604548559'
p5651
VFeng Weidong
p5652
sS'636721580'
p5653
VChua Jie Xuan
p5654
sS'601910818'
p5655
VLee Chu Yong Mark
p5656
sS'1269384405'
p5657
VTheron Ng
p5658
saa(lp5659
S'10150207478188157'
p5660
aS'1308376949'
p5661
a(dp5662
S'601910818'
p5663
VLee Chu Yong Mark
p5664
sS'690091106'
p5665
VChen Siheng
p5666
sS'598080031'
p5667
VWei Lai
p5668
saa(lp5669
S'10150207478143157'
p5670
aS'1308376944'
p5671
a(dp5672
S'601910818'
p5673
VLee Chu Yong Mark
p5674
sS'690091106'
p5675
VChen Siheng
p5676
sS'598080031'
p5677
VWei Lai
p5678
saa(lp5679
S'10150221274734756'
p5680
aS'1308209580'
p5681
a(dp5682
S'569814755'
p5683
VTan Shao Yun
p5684
sS'601910818'
p5685
VLee Chu Yong Mark
p5686
sS'1389777357'
p5687
VRay Yan
p5688
saa(lp5689
S'2175781879311'
p5690
aS'1307948466'
p5691
a(dp5692
S'1389777357'
p5693
VRay Yan
p5694
sS'1058656013'
p5695
VYuan Yuchuan
p5696
sS'100000620682760'
p5697
VTan Choo Kee
p5698
sS'569814755'
p5699
VTan Shao Yun
p5700
sS'616283047'
p5701
VZheng Yi
p5702
sS'1097140932'
p5703
VDerek Nam
p5704
sS'601910818'
p5705
VLee Chu Yong Mark
p5706
sS'575173882'
p5707
VNgo Wei Ze
p5708
saa(lp5709
S'2175783199344'
p5710
aS'1307948502'
p5711
a(dp5712
S'1208130807'
p5713
VWilliam Gan
p5714
sS'601910818'
p5715
VLee Chu Yong Mark
p5716
sS'569814755'
p5717
VTan Shao Yun
p5718
sS'616283047'
p5719
VZheng Yi
p5720
sS'1097140932'
p5721
VDerek Nam
p5722
sS'1058656013'
p5723
VYuan Yuchuan
p5724
sS'1389777357'
p5725
VRay Yan
p5726
saa(lp5727
S'2175774279121'
p5728
aS'1307948108'
p5729
a(dp5730
S'1208130807'
p5731
VWilliam Gan
p5732
sS'601910818'
p5733
VLee Chu Yong Mark
p5734
sS'569814755'
p5735
VTan Shao Yun
p5736
sS'616283047'
p5737
VZheng Yi
p5738
sS'1097140932'
p5739
VDerek Nam
p5740
sS'1058656013'
p5741
VYuan Yuchuan
p5742
sS'1389777357'
p5743
VRay Yan
p5744
saa(lp5745
S'10150208775864771'
p5746
aS'1307153633'
p5747
a(dp5748
S'1047768460'
p5749
VEvelyn He Xinyi
p5750
sS'640066776'
p5751
VCao Yun
p5752
sS'100000513474595'
p5753
VTimothy Yap
p5754
sS'745548182'
p5755
VSzeto Kah Keong
p5756
sS'601910818'
p5757
VLee Chu Yong Mark
p5758
sS'547022235'
p5759
VJohn Yong
p5760
saa(lp5761
S'10150208775079771'
p5762
aS'1307153567'
p5763
a(dp5764
S'1047768460'
p5765
VEvelyn He Xinyi
p5766
sS'640066776'
p5767
VCao Yun
p5768
sS'100000513474595'
p5769
VTimothy Yap
p5770
sS'745548182'
p5771
VSzeto Kah Keong
p5772
sS'601910818'
p5773
VLee Chu Yong Mark
p5774
sS'547022235'
p5775
VJohn Yong
p5776
saa(lp5777
S'10150206392844756'
p5778
aS'1306775095'
p5779
a(dp5780
S'706816684'
p5781
VDaniel Wong
p5782
sS'1146411051'
p5783
VYiren Wong
p5784
sS'601910818'
p5785
VLee Chu Yong Mark
p5786
saa(lp5787
S'10150209413616777'
p5788
aS'1306513624'
p5789
a(dp5790
S'736201622'
p5791
VDarren Lum
p5792
sS'1047768460'
p5793
VEvelyn He Xinyi
p5794
sS'640066776'
p5795
VCao Yun
p5796
sS'735798259'
p5797
VLeong Zhao Hong
p5798
sS'548517812'
p5799
VOng MurFei
p5800
sS'100000513474595'
p5801
VTimothy Yap
p5802
sS'648193181'
p5803
VHan Wei
p5804
sS'1651616676'
p5805
VLi Qizhu
p5806
sS'1783735497'
p5807
V\u9ec4\u677e\u9e4f
p5808
sS'745548182'
p5809
VSzeto Kah Keong
p5810
sS'832975103'
p5811
VAlvin Liew
p5812
sS'616283047'
p5813
VZheng Yi
p5814
sS'646142505'
p5815
VShawn Ng
p5816
sS'669654770'
p5817
VFan Yu Zhen
p5818
sS'601910818'
p5819
VLee Chu Yong Mark
p5820
sS'662111446'
p5821
VLim Chern Yuen
p5822
sS'547022235'
p5823
VJohn Yong
p5824
sS'1086483192'
p5825
VHoang Lan David
p5826
saa(lp5827
S'10150209413361777'
p5828
aS'1306513611'
p5829
a(dp5830
S'736201622'
p5831
VDarren Lum
p5832
sS'1047768460'
p5833
VEvelyn He Xinyi
p5834
sS'640066776'
p5835
VCao Yun
p5836
sS'735798259'
p5837
VLeong Zhao Hong
p5838
sS'548517812'
p5839
VOng MurFei
p5840
sS'100000513474595'
p5841
VTimothy Yap
p5842
sS'648193181'
p5843
VHan Wei
p5844
sS'1783735497'
p5845
V\u9ec4\u677e\u9e4f
p5846
sS'745548182'
p5847
VSzeto Kah Keong
p5848
sS'832975103'
p5849
VAlvin Liew
p5850
sS'616283047'
p5851
VZheng Yi
p5852
sS'646142505'
p5853
VShawn Ng
p5854
sS'669654770'
p5855
VFan Yu Zhen
p5856
sS'601910818'
p5857
VLee Chu Yong Mark
p5858
sS'662111446'
p5859
VLim Chern Yuen
p5860
sS'547022235'
p5861
VJohn Yong
p5862
sS'1086483192'
p5863
VHoang Lan David
p5864
saa(lp5865
S'10150209412766777'
p5866
aS'1306513594'
p5867
a(dp5868
S'736201622'
p5869
VDarren Lum
p5870
sS'1047768460'
p5871
VEvelyn He Xinyi
p5872
sS'1369716924'
p5873
VValerie Lin Qianying
p5874
sS'548517812'
p5875
VOng MurFei
p5876
sS'735798259'
p5877
VLeong Zhao Hong
p5878
sS'100000513474595'
p5879
VTimothy Yap
p5880
sS'648193181'
p5881
VHan Wei
p5882
sS'1651616676'
p5883
VLi Qizhu
p5884
sS'1783735497'
p5885
V\u9ec4\u677e\u9e4f
p5886
sS'745548182'
p5887
VSzeto Kah Keong
p5888
sS'640066776'
p5889
VCao Yun
p5890
sS'616283047'
p5891
VZheng Yi
p5892
sS'646142505'
p5893
VShawn Ng
p5894
sS'669654770'
p5895
VFan Yu Zhen
p5896
sS'601910818'
p5897
VLee Chu Yong Mark
p5898
sS'662111446'
p5899
VLim Chern Yuen
p5900
sS'547022235'
p5901
VJohn Yong
p5902
sS'1086483192'
p5903
VHoang Lan David
p5904
saa(lp5905
S'10150188268965819'
p5906
aS'1305284323'
p5907
a(dp5908
S'1047768460'
p5909
VEvelyn He Xinyi
p5910
sS'1369716924'
p5911
VValerie Lin Qianying
p5912
sS'735798259'
p5913
VLeong Zhao Hong
p5914
sS'1651616676'
p5915
VLi Qizhu
p5916
sS'601910818'
p5917
VLee Chu Yong Mark
p5918
sS'1086483192'
p5919
VHoang Lan David
p5920
saa(lp5921
S'10150188269110819'
p5922
aS'1305284336'
p5923
a(dp5924
S'1047768460'
p5925
VEvelyn He Xinyi
p5926
sS'1369716924'
p5927
VValerie Lin Qianying
p5928
sS'735798259'
p5929
VLeong Zhao Hong
p5930
sS'1651616676'
p5931
VLi Qizhu
p5932
sS'601910818'
p5933
VLee Chu Yong Mark
p5934
sS'1086483192'
p5935
VHoang Lan David
p5936
saa(lp5937
S'214625568565272'
p5938
aS'1304248550'
p5939
a(dp5940
S'1047768460'
p5941
VEvelyn He Xinyi
p5942
sS'1369716924'
p5943
VValerie Lin Qianying
p5944
sS'735798259'
p5945
VLeong Zhao Hong
p5946
sS'616283047'
p5947
VZheng Yi
p5948
sS'646142505'
p5949
VShawn Ng
p5950
sS'669654770'
p5951
VFan Yu Zhen
p5952
sS'601910818'
p5953
VLee Chu Yong Mark
p5954
saa(lp5955
S'214623045232191'
p5956
aS'1304247966'
p5957
a(dp5958
S'1047768460'
p5959
VEvelyn He Xinyi
p5960
sS'100000513474595'
p5961
VTimothy Yap
p5962
sS'745548182'
p5963
VSzeto Kah Keong
p5964
sS'832975103'
p5965
VAlvin Liew
p5966
sS'646142505'
p5967
VShawn Ng
p5968
sS'669654770'
p5969
VFan Yu Zhen
p5970
sS'601910818'
p5971
VLee Chu Yong Mark
p5972
saa(lp5973
S'10150178199859771'
p5974
aS'1304587802'
p5975
a(dp5976
S'1047768460'
p5977
VEvelyn He Xinyi
p5978
sS'735798259'
p5979
VLeong Zhao Hong
p5980
sS'100000513474595'
p5981
VTimothy Yap
p5982
sS'745548182'
p5983
VSzeto Kah Keong
p5984
sS'832975103'
p5985
VAlvin Liew
p5986
sS'616283047'
p5987
VZheng Yi
p5988
sS'646142505'
p5989
VShawn Ng
p5990
sS'669654770'
p5991
VFan Yu Zhen
p5992
sS'601910818'
p5993
VLee Chu Yong Mark
p5994
saa(lp5995
S'1851436199472'
p5996
aS'1304233536'
p5997
a(dp5998
S'735798259'
p5999
VLeong Zhao Hong
p6000
sS'1783735497'
p6001
V\u9ec4\u677e\u9e4f
p6002
sS'745548182'
p6003
VSzeto Kah Keong
p6004
sS'832975103'
p6005
VAlvin Liew
p6006
sS'669654770'
p6007
VFan Yu Zhen
p6008
sS'601910818'
p6009
VLee Chu Yong Mark
p6010
sS'1086483192'
p6011
VHoang Lan David
p6012
saa(lp6013
S'1851424839188'
p6014
aS'1304232683'
p6015
a(dp6016
S'646142505'
p6017
VShawn Ng
p6018
sS'601910818'
p6019
VLee Chu Yong Mark
p6020
sS'745548182'
p6021
VSzeto Kah Keong
p6022
saa(lp6023
S'1851424679184'
p6024
aS'1304232675'
p6025
a(dp6026
S'646142505'
p6027
VShawn Ng
p6028
sS'669654770'
p6029
VFan Yu Zhen
p6030
sS'601910818'
p6031
VLee Chu Yong Mark
p6032
saa(lp6033
S'10150171684383668'
p6034
aS'1304156982'
p6035
a(dp6036
S'767899294'
p6037
VHou Houy Hou
p6038
sS'706816684'
p6039
VDaniel Wong
p6040
sS'646033821'
p6041
VSeah Chin Ying
p6042
sS'736521708'
p6043
VJiakun Xu
p6044
sS'724443667'
p6045
VYang Kenneth Lu
p6046
sS'1082054193'
p6047
VSue Zheng Hao
p6048
sS'1097140932'
p6049
VDerek Nam
p6050
sS'601910818'
p6051
VLee Chu Yong Mark
p6052
sS'1389777357'
p6053
VRay Yan
p6054
saa(lp6055
S'10150169073665819'
p6056
aS'1303574934'
p6057
a(dp6058
S'1047768460'
p6059
VEvelyn He Xinyi
p6060
sS'735798259'
p6061
VLeong Zhao Hong
p6062
sS'100000513474595'
p6063
VTimothy Yap
p6064
sS'745548182'
p6065
VSzeto Kah Keong
p6066
sS'832975103'
p6067
VAlvin Liew
p6068
sS'616283047'
p6069
VZheng Yi
p6070
sS'646142505'
p6071
VShawn Ng
p6072
sS'669654770'
p6073
VFan Yu Zhen
p6074
sS'601910818'
p6075
VLee Chu Yong Mark
p6076
sS'662111446'
p6077
VLim Chern Yuen
p6078
saa(lp6079
S'10150169069840819'
p6080
aS'1303574632'
p6081
a(dp6082
S'601910818'
p6083
VLee Chu Yong Mark
p6084
sS'745548182'
p6085
VSzeto Kah Keong
p6086
sS'735798259'
p6087
VLeong Zhao Hong
p6088
saa(lp6089
S'10150169073130819'
p6090
aS'1303574899'
p6091
a(dp6092
S'736201622'
p6093
VDarren Lum
p6094
sS'1047768460'
p6095
VEvelyn He Xinyi
p6096
sS'640066776'
p6097
VCao Yun
p6098
sS'735798259'
p6099
VLeong Zhao Hong
p6100
sS'548517812'
p6101
VOng MurFei
p6102
sS'100000513474595'
p6103
VTimothy Yap
p6104
sS'648193181'
p6105
VHan Wei
p6106
sS'745548182'
p6107
VSzeto Kah Keong
p6108
sS'1369716924'
p6109
VValerie Lin Qianying
p6110
sS'832975103'
p6111
VAlvin Liew
p6112
sS'616283047'
p6113
VZheng Yi
p6114
sS'646142505'
p6115
VShawn Ng
p6116
sS'669654770'
p6117
VFan Yu Zhen
p6118
sS'601910818'
p6119
VLee Chu Yong Mark
p6120
sS'662111446'
p6121
VLim Chern Yuen
p6122
saa(lp6123
S'10150549882345104'
p6124
aS'1302528494'
p6125
a(dp6126
S'736201622'
p6127
VDarren Lum
p6128
sS'1047768460'
p6129
VEvelyn He Xinyi
p6130
sS'735798259'
p6131
VLeong Zhao Hong
p6132
sS'548517812'
p6133
VOng MurFei
p6134
sS'100000513474595'
p6135
VTimothy Yap
p6136
sS'648193181'
p6137
VHan Wei
p6138
sS'1651616676'
p6139
VLi Qizhu
p6140
sS'1783735497'
p6141
V\u9ec4\u677e\u9e4f
p6142
sS'745548182'
p6143
VSzeto Kah Keong
p6144
sS'1070107257'
p6145
VYuyang Lei
p6146
sS'832975103'
p6147
VAlvin Liew
p6148
sS'616283047'
p6149
VZheng Yi
p6150
sS'646142505'
p6151
VShawn Ng
p6152
sS'669654770'
p6153
VFan Yu Zhen
p6154
sS'601910818'
p6155
VLee Chu Yong Mark
p6156
sS'662111446'
p6157
VLim Chern Yuen
p6158
sS'547022235'
p6159
VJohn Yong
p6160
sS'1086483192'
p6161
VHoang Lan David
p6162
saa(lp6163
S'10150143769792304'
p6164
aS'1302101041'
p6165
a(dp6166
S'681147891'
p6167
VRaymond Kang
p6168
sS'682082541'
p6169
VChuanqi Shen
p6170
sS'745588074'
p6171
VAndrew Low Kah Khang
p6172
sS'738088288'
p6173
VJoseph Lee Wei En
p6174
sS'725577303'
p6175
VSteven Halim
p6176
sS'522595346'
p6177
VVictor Loh
p6178
sS'601910818'
p6179
VLee Chu Yong Mark
p6180
sS'100000998842678'
p6181
VChin Zhan Xiong
p6182
saa(lp6183
S'210130779014036'
p6184
aS'1301838162'
p6185
a(dp6186
S'1047768460'
p6187
VEvelyn He Xinyi
p6188
sS'640066776'
p6189
VCao Yun
p6190
sS'735798259'
p6191
VLeong Zhao Hong
p6192
sS'100000513474595'
p6193
VTimothy Yap
p6194
sS'1651616676'
p6195
VLi Qizhu
p6196
sS'745548182'
p6197
VSzeto Kah Keong
p6198
sS'1070107257'
p6199
VYuyang Lei
p6200
sS'832975103'
p6201
VAlvin Liew
p6202
sS'616283047'
p6203
VZheng Yi
p6204
sS'646142505'
p6205
VShawn Ng
p6206
sS'669654770'
p6207
VFan Yu Zhen
p6208
sS'601910818'
p6209
VLee Chu Yong Mark
p6210
sS'662111446'
p6211
VLim Chern Yuen
p6212
sS'547022235'
p6213
VJohn Yong
p6214
sS'1086483192'
p6215
VHoang Lan David
p6216
saa(lp6217
S'10150144467049724'
p6218
aS'1301915124'
p6219
a(dp6220
S'736201622'
p6221
VDarren Lum
p6222
sS'1047768460'
p6223
VEvelyn He Xinyi
p6224
sS'640066776'
p6225
VCao Yun
p6226
sS'735798259'
p6227
VLeong Zhao Hong
p6228
sS'548517812'
p6229
VOng MurFei
p6230
sS'100000513474595'
p6231
VTimothy Yap
p6232
sS'648193181'
p6233
VHan Wei
p6234
sS'1651616676'
p6235
VLi Qizhu
p6236
sS'745548182'
p6237
VSzeto Kah Keong
p6238
sS'1070107257'
p6239
VYuyang Lei
p6240
sS'832975103'
p6241
VAlvin Liew
p6242
sS'616283047'
p6243
VZheng Yi
p6244
sS'646142505'
p6245
VShawn Ng
p6246
sS'669654770'
p6247
VFan Yu Zhen
p6248
sS'601910818'
p6249
VLee Chu Yong Mark
p6250
sS'662111446'
p6251
VLim Chern Yuen
p6252
sS'547022235'
p6253
VJohn Yong
p6254
sS'1086483192'
p6255
VHoang Lan David
p6256
saa(lp6257
S'199305873426474'
p6258
aS'1299936497'
p6259
a(dp6260
S'578714759'
p6261
VJoshua Ng
p6262
sS'601910818'
p6263
VLee Chu Yong Mark
p6264
saa(lp6265
S'199305823426479'
p6266
aS'1299936488'
p6267
a(dp6268
S'578714759'
p6269
VJoshua Ng
p6270
sS'601910818'
p6271
VLee Chu Yong Mark
p6272
sS'1014814854'
p6273
VChingyee Chia
p6274
sS'1402002036'
p6275
VDerrick Toh
p6276
saa(lp6277
S'1799130770771'
p6278
aS'1299915569'
p6279
a(dp6280
S'100000411891786'
p6281
VLynn Tan
p6282
sS'601910818'
p6283
VLee Chu Yong Mark
p6284
saa(lp6285
S'1799126530665'
p6286
aS'1299915425'
p6287
a(dp6288
S'578714759'
p6289
VJoshua Ng
p6290
sS'601910818'
p6291
VLee Chu Yong Mark
p6292
saa(lp6293
S'1799126130655'
p6294
aS'1299915404'
p6295
a(dp6296
S'1153666384'
p6297
VJoshua Yeo
p6298
sS'601910818'
p6299
VLee Chu Yong Mark
p6300
sS'1402002036'
p6301
VDerrick Toh
p6302
sS'594599421'
p6303
VJoshua Foo
p6304
saa(lp6305
S'1799126010652'
p6306
aS'1299915394'
p6307
a(dp6308
S'1153666384'
p6309
VJoshua Yeo
p6310
sS'601910818'
p6311
VLee Chu Yong Mark
p6312
saa(lp6313
S'1799125730645'
p6314
aS'1299915383'
p6315
a(dp6316
S'1153666384'
p6317
VJoshua Yeo
p6318
sS'601910818'
p6319
VLee Chu Yong Mark
p6320
saa(lp6321
S'1743155532523'
p6322
aS'1299854597'
p6323
a(dp6324
S'736201622'
p6325
VDarren Lum
p6326
sS'1047768460'
p6327
VEvelyn He Xinyi
p6328
sS'1369716924'
p6329
VValerie Lin Qianying
p6330
sS'735798259'
p6331
VLeong Zhao Hong
p6332
sS'100000513474595'
p6333
VTimothy Yap
p6334
sS'1651616676'
p6335
VLi Qizhu
p6336
sS'1783735497'
p6337
V\u9ec4\u677e\u9e4f
p6338
sS'745548182'
p6339
VSzeto Kah Keong
p6340
sS'1070107257'
p6341
VYuyang Lei
p6342
sS'640066776'
p6343
VCao Yun
p6344
sS'616283047'
p6345
VZheng Yi
p6346
sS'646142505'
p6347
VShawn Ng
p6348
sS'669654770'
p6349
VFan Yu Zhen
p6350
sS'601910818'
p6351
VLee Chu Yong Mark
p6352
sS'662111446'
p6353
VLim Chern Yuen
p6354
saa(lp6355
S'1743150332393'
p6356
aS'1299854372'
p6357
a(dp6358
S'601910818'
p6359
VLee Chu Yong Mark
p6360
sS'735798259'
p6361
VLeong Zhao Hong
p6362
saa(lp6363
S'1743147852331'
p6364
aS'1299854286'
p6365
a(dp6366
S'1047768460'
p6367
VEvelyn He Xinyi
p6368
sS'601910818'
p6369
VLee Chu Yong Mark
p6370
saa(lp6371
S'10150113293418075'
p6372
aS'1299758423'
p6373
a(dp6374
S'681147891'
p6375
VRaymond Kang
p6376
sS'601910818'
p6377
VLee Chu Yong Mark
p6378
sS'745588074'
p6379
VAndrew Low Kah Khang
p6380
sS'682082541'
p6381
VChuanqi Shen
p6382
saa(lp6383
S'10150118284958830'
p6384
aS'1299674981'
p6385
a(dp6386
S'681147891'
p6387
VRaymond Kang
p6388
sS'682082541'
p6389
VChuanqi Shen
p6390
sS'745588074'
p6391
VAndrew Low Kah Khang
p6392
sS'792543829'
p6393
VBradford Loh
p6394
sS'1574688957'
p6395
VIan Scott Chua
p6396
sS'601910818'
p6397
VLee Chu Yong Mark
p6398
saa(lp6399
S'10150112316723129'
p6400
aS'1298723415'
p6401
a(dp6402
S'560502762'
p6403
VNeo Yu Pei
p6404
sS'1336129846'
p6405
VLee Meow MenQuan
p6406
sS'719963724'
p6407
VLim Tiong Wei Benny
p6408
sS'1080263439'
p6409
VJonathan Khoo
p6410
sS'659663579'
p6411
VJolin Tan
p6412
sS'546977559'
p6413
VChai Wen Cong Calvin
p6414
sS'564933255'
p6415
VLim Xin Tong
p6416
sS'531838826'
p6417
VJiegang Bear Xiong
p6418
sS'523324593'
p6419
VChua Zhan Teng
p6420
sS'1081860880'
p6421
VLinh Dang
p6422
sS'557833640'
p6423
VCao XuJun
p6424
sS'634854334'
p6425
VSamuel Lim
p6426
sS'1094773105'
p6427
VToh Zheng Xiang
p6428
sS'649792887'
p6429
VSim Meng Ying
p6430
sS'827215541'
p6431
VKaro Pay
p6432
sS'724443667'
p6433
VYang Kenneth Lu
p6434
sS'1027922336'
p6435
VRachel Sim
p6436
sS'1388678999'
p6437
VZoe Mengyao Wei
p6438
sS'832975103'
p6439
VAlvin Liew
p6440
sS'531868159'
p6441
VMelissa Chan
p6442
sS'601910818'
p6443
VLee Chu Yong Mark
p6444
sS'646768772'
p6445
VTham Shi Yuan
p6446
sS'577284054'
p6447
VBethanie Fly Ong
p6448
sS'548517812'
p6449
VOng MurFei
p6450
sS'779919982'
p6451
VKhor Shi-Jie
p6452
sS'556513771'
p6453
VTroy Tan
p6454
sS'510865674'
p6455
VMengJie Zhao
p6456
sS'532189772'
p6457
VAu Yong Shi Ya
p6458
sS'579002083'
p6459
VMichael Calderone Chee
p6460
sS'807103904'
p6461
VChan Shi Mun
p6462
sS'1277671714'
p6463
VRyanne Leong
p6464
sS'662111446'
p6465
VLim Chern Yuen
p6466
sS'549968486'
p6467
VLin Hong
p6468
sS'1389777357'
p6469
VRay Yan
p6470
sS'778807910'
p6471
VPeter Haw
p6472
sS'642903738'
p6473
VChan Xue Wei
p6474
sS'1188590916'
p6475
VEddie Yang Chen
p6476
sS'648488998'
p6477
VYan Seng Lim
p6478
sS'575119607'
p6479
VLee Han Yi
p6480
sS'736753738'
p6481
VTan Run Xian
p6482
sS'531688859'
p6483
VKe Yu He
p6484
sS'783939982'
p6485
VRay Tng
p6486
sS'547167225'
p6487
VMike Wang Xiaochun
p6488
sS'1344728347'
p6489
VErnest Wyatt
p6490
sS'616283047'
p6491
VZheng Yi
p6492
sS'1527390059'
p6493
V\u6db5\u6731
p6494
sS'736925605'
p6495
VLam Bo Jun
p6496
sS'547022235'
p6497
VJohn Yong
p6498
saa(lp6499
S'10150096138555819'
p6500
aS'1297444460'
p6501
a(dp6502
S'612543772'
p6503
VLin Chuch Cheng
p6504
sS'735798259'
p6505
VLeong Zhao Hong
p6506
sS'640066776'
p6507
VCao Yun
p6508
sS'745548182'
p6509
VSzeto Kah Keong
p6510
sS'769404975'
p6511
VPatricia Dewi
p6512
sS'1086483192'
p6513
VHoang Lan David
p6514
sS'736201622'
p6515
VDarren Lum
p6516
sS'1047768460'
p6517
VEvelyn He Xinyi
p6518
sS'564802413'
p6519
VIris Pek
p6520
sS'100000513474595'
p6521
VTimothy Yap
p6522
sS'1783735497'
p6523
V\u9ec4\u677e\u9e4f
p6524
sS'832975103'
p6525
VAlvin Liew
p6526
sS'1070107257'
p6527
VYuyang Lei
p6528
sS'646142505'
p6529
VShawn Ng
p6530
sS'669654770'
p6531
VFan Yu Zhen
p6532
sS'601910818'
p6533
VLee Chu Yong Mark
p6534
sS'668989715'
p6535
VDennis Woo
p6536
sS'548517812'
p6537
VOng MurFei
p6538
sS'670610185'
p6539
VKayyun Lian
p6540
sS'607520038'
p6541
VZi Song Lim
p6542
sS'1369716924'
p6543
VValerie Lin Qianying
p6544
sS'662111446'
p6545
VLim Chern Yuen
p6546
sS'1651616676'
p6547
VLi Qizhu
p6548
sS'616283047'
p6549
VZheng Yi
p6550
sS'1020196700'
p6551
VKenji Ong
p6552
sS'547022235'
p6553
VJohn Yong
p6554
saa(lp6555
S'1758696642184'
p6556
aS'1297252741'
p6557
a(dp6558
S'1578734144'
p6559
VYao Yujian
p6560
sS'601910818'
p6561
VLee Chu Yong Mark
p6562
sS'651898909'
p6563
VBrandon Woo Junle
p6564
sS'547022235'
p6565
VJohn Yong
p6566
saa(lp6567
S'10150093052075819'
p6568
aS'1296922596'
p6569
a(dp6570
S'1047768460'
p6571
VEvelyn He Xinyi
p6572
sS'1651616676'
p6573
VLi Qizhu
p6574
sS'832975103'
p6575
VAlvin Liew
p6576
sS'1070107257'
p6577
VYuyang Lei
p6578
sS'616283047'
p6579
VZheng Yi
p6580
sS'601910818'
p6581
VLee Chu Yong Mark
p6582
saa(lp6583
S'10150093052010819'
p6584
aS'1296922588'
p6585
a(dp6586
S'1047768460'
p6587
VEvelyn He Xinyi
p6588
sS'745548182'
p6589
VSzeto Kah Keong
p6590
sS'646142505'
p6591
VShawn Ng
p6592
sS'669654770'
p6593
VFan Yu Zhen
p6594
sS'601910818'
p6595
VLee Chu Yong Mark
p6596
sS'547022235'
p6597
VJohn Yong
p6598
saa(lp6599
S'10150093050435819'
p6600
aS'1296922380'
p6601
a(dp6602
S'601910818'
p6603
VLee Chu Yong Mark
p6604
sS'704608128'
p6605
VPei Ling Chia
p6606
saa(lp6607
S'10150093049355819'
p6608
aS'1296922251'
p6609
a(dp6610
S'601910818'
p6611
VLee Chu Yong Mark
p6612
sS'547022235'
p6613
VJohn Yong
p6614
saa(lp6615
S'10150093049710819'
p6616
aS'1296922288'
p6617
a(dp6618
S'1047768460'
p6619
VEvelyn He Xinyi
p6620
sS'1369716924'
p6621
VValerie Lin Qianying
p6622
sS'10150189170005819'
p6623
Vjohn
p6624
sS'100000513474595'
p6625
VTimothy Yap
p6626
sS'1651616676'
p6627
VLi Qizhu
p6628
sS'1783735497'
p6629
V\u9ec4\u677e\u9e4f
p6630
sS'832975103'
p6631
VAlvin Liew
p6632
sS'1070107257'
p6633
VYuyang Lei
p6634
sS'616283047'
p6635
VZheng Yi
p6636
sS'646142505'
p6637
VShawn Ng
p6638
sS'669654770'
p6639
VFan Yu Zhen
p6640
sS'601910818'
p6641
VLee Chu Yong Mark
p6642
sS'547022235'
p6643
VJohn Yong
p6644
sS'1086483192'
p6645
VHoang Lan David
p6646
saa(lp6647
S'10150093051890819'
p6648
aS'1296922578'
p6649
a(dp6650
S'1047768460'
p6651
VEvelyn He Xinyi
p6652
sS'687543390'
p6653
VWan Ting Low
p6654
sS'1651616676'
p6655
VLi Qizhu
p6656
sS'745548182'
p6657
VSzeto Kah Keong
p6658
sS'1070107257'
p6659
VYuyang Lei
p6660
sS'832975103'
p6661
VAlvin Liew
p6662
sS'646142505'
p6663
VShawn Ng
p6664
sS'669654770'
p6665
VFan Yu Zhen
p6666
sS'601910818'
p6667
VLee Chu Yong Mark
p6668
sS'547022235'
p6669
VJohn Yong
p6670
sS'1086483192'
p6671
VHoang Lan David
p6672
sS'530546872'
p6673
VCheryl Lee
p6674
saa(lp6675
S'1710668761272'
p6676
aS'1296620391'
p6677
a(dp6678
S'669654770'
p6679
VFan Yu Zhen
p6680
sS'1047768460'
p6681
VEvelyn He Xinyi
p6682
sS'1070107257'
p6683
VYuyang Lei
p6684
sS'601910818'
p6685
VLee Chu Yong Mark
p6686
sS'1651616676'
p6687
VLi Qizhu
p6688
saa(lp6689
S'1554601911065'
p6690
aS'1296664729'
p6691
a(dp6692
S'601910818'
p6693
VLee Chu Yong Mark
p6694
sS'648488998'
p6695
VYan Seng Lim
p6696
saa(lp6697
S'1554601431053'
p6698
aS'1296664717'
p6699
a(dp6700
S'601910818'
p6701
VLee Chu Yong Mark
p6702
sS'648488998'
p6703
VYan Seng Lim
p6704
saa(lp6705
S'1554601071044'
p6706
aS'1296664703'
p6707
a(dp6708
S'601910818'
p6709
VLee Chu Yong Mark
p6710
sS'648488998'
p6711
VYan Seng Lim
p6712
saa(lp6713
S'1554577590457'
p6714
aS'1296664061'
p6715
a(dp6716
S'1344814444'
p6717
VSee Kai Yuan
p6718
sS'745598388'
p6719
VLee Kah How
p6720
sS'784442136'
p6721
VJoan Fun
p6722
sS'648488998'
p6723
VYan Seng Lim
p6724
sS'733866118'
p6725
VChak Mun
p6726
sS'585984822'
p6727
VKuek Jia Li
p6728
sS'636721580'
p6729
VChua Jie Xuan
p6730
sS'601910818'
p6731
VLee Chu Yong Mark
p6732
sS'1539733590'
p6733
VYvonne Fong
p6734
saa(lp6735
S'1554577310450'
p6736
aS'1296664046'
p6737
a(dp6738
S'1344814444'
p6739
VSee Kai Yuan
p6740
sS'745598388'
p6741
VLee Kah How
p6742
sS'784442136'
p6743
VJoan Fun
p6744
sS'733866118'
p6745
VChak Mun
p6746
sS'585984822'
p6747
VKuek Jia Li
p6748
sS'636721580'
p6749
VChua Jie Xuan
p6750
sS'601910818'
p6751
VLee Chu Yong Mark
p6752
sS'648488998'
p6753
VYan Seng Lim
p6754
saa(lp6755
S'10150093165894771'
p6756
aS'1296718921'
p6757
a(dp6758
S'601910818'
p6759
VLee Chu Yong Mark
p6760
sS'832975103'
p6761
VAlvin Liew
p6762
saa(lp6763
S'10150093165644771'
p6764
aS'1296718856'
p6765
a(dp6766
S'1783735497'
p6767
V\u9ec4\u677e\u9e4f
p6768
sS'601910818'
p6769
VLee Chu Yong Mark
p6770
saa(lp6771
S'10150093165384771'
p6772
aS'1296718807'
p6773
a(dp6774
S'646142505'
p6775
VShawn Ng
p6776
sS'601910818'
p6777
VLee Chu Yong Mark
p6778
saa(lp6779
S'499912772799'
p6780
aS'1296642130'
p6781
a(dp6782
S'778238551'
p6783
VWilfred Ngia
p6784
sS'687543390'
p6785
VWan Ting Low
p6786
sS'780479332'
p6787
VSaw Le En
p6788
sS'745548182'
p6789
VSzeto Kah Keong
p6790
sS'832975103'
p6791
VAlvin Liew
p6792
sS'575187799'
p6793
VJia Yi Fong
p6794
sS'669654770'
p6795
VFan Yu Zhen
p6796
sS'601910818'
p6797
VLee Chu Yong Mark
p6798
sS'564992480'
p6799
VTan Hui Min
p6800
sS'530546872'
p6801
VCheryl Lee
p6802
saa(lp6803
S'499912572799'
p6804
aS'1296642113'
p6805
a(dp6806
S'1047768460'
p6807
VEvelyn He Xinyi
p6808
sS'778238551'
p6809
VWilfred Ngia
p6810
sS'735798259'
p6811
VLeong Zhao Hong
p6812
sS'564992480'
p6813
VTan Hui Min
p6814
sS'1651616676'
p6815
VLi Qizhu
p6816
sS'780479332'
p6817
VSaw Le En
p6818
sS'547022235'
p6819
VJohn Yong
p6820
sS'745548182'
p6821
VSzeto Kah Keong
p6822
sS'1070107257'
p6823
VYuyang Lei
p6824
sS'616283047'
p6825
VZheng Yi
p6826
sS'575187799'
p6827
VJia Yi Fong
p6828
sS'646142505'
p6829
VShawn Ng
p6830
sS'669654770'
p6831
VFan Yu Zhen
p6832
sS'601910818'
p6833
VLee Chu Yong Mark
p6834
sS'687543390'
p6835
VWan Ting Low
p6836
sS'1086483192'
p6837
VHoang Lan David
p6838
sS'530546872'
p6839
VCheryl Lee
p6840
saa(lp6841
S'1514900678559'
p6842
aS'1293782970'
p6843
a(dp6844
S'1415711097'
p6845
VJeklone Yong
p6846
sS'601910818'
p6847
VLee Chu Yong Mark
p6848
saa(lp6849
S'1514885998192'
p6850
aS'1293782043'
p6851
a(dp6852
S'601910818'
p6853
VLee Chu Yong Mark
p6854
sS'648488998'
p6855
VYan Seng Lim
p6856
saa(lp6857
S'1514853077369'
p6858
aS'1293777756'
p6859
a(dp6860
S'601910818'
p6861
VLee Chu Yong Mark
p6862
sS'585984822'
p6863
VKuek Jia Li
p6864
saa(lp6865
S'10150120271286119'
p6866
aS'1293666285'
p6867
a(dp6868
S'601910818'
p6869
VLee Chu Yong Mark
p6870
sS'1269384405'
p6871
VTheron Ng
p6872
saa(lp6873
S'477982907797'
p6874
aS'1293452024'
p6875
a(dp6876
S'600967843'
p6877
VEdwin Liang
p6878
sS'689417797'
p6879
VYip Cheng Wai
p6880
sS'595277736'
p6881
VJun Yi Lee
p6882
sS'1476772218'
p6883
VHan Loong
p6884
sS'571895841'
p6885
VTan Yu Xuan
p6886
sS'594083526'
p6887
VFoo Toon Min
p6888
sS'601910818'
p6889
VLee Chu Yong Mark
p6890
sS'1344728347'
p6891
VErnest Wyatt
p6892
saa(lp6893
S'1777838846926'
p6894
aS'1293612335'
p6895
a(dp6896
S'600967843'
p6897
VEdwin Liang
p6898
sS'1344814444'
p6899
VSee Kai Yuan
p6900
sS'648488998'
p6901
VYan Seng Lim
p6902
sS'745598388'
p6903
VLee Kah How
p6904
sS'604548559'
p6905
VFeng Weidong
p6906
sS'636721580'
p6907
VChua Jie Xuan
p6908
sS'100001675463640'
p6909
VPhallin Sim
p6910
sS'601910818'
p6911
VLee Chu Yong Mark
p6912
sS'1269384405'
p6913
VTheron Ng
p6914
saa(lp6915
S'1777800965979'
p6916
aS'1293611403'
p6917
a(dp6918
S'601910818'
p6919
VLee Chu Yong Mark
p6920
sS'1269384405'
p6921
VTheron Ng
p6922
sS'604548559'
p6923
VFeng Weidong
p6924
saa(lp6925
S'498948367136'
p6926
aS'1293074311'
p6927
a(dp6928
S'601910818'
p6929
VLee Chu Yong Mark
p6930
sS'1269384405'
p6931
VTheron Ng
p6932
sS'648488998'
p6933
VYan Seng Lim
p6934
sS'585984822'
p6935
VKuek Jia Li
p6936
sS'566959383'
p6937
VClara Teo
p6938
saa(lp6939
S'498940787136'
p6940
aS'1293073426'
p6941
a(dp6942
S'1344814444'
p6943
VSee Kai Yuan
p6944
sS'601910818'
p6945
VLee Chu Yong Mark
p6946
sS'728785915'
p6947
VLydia Tan
p6948
sS'745598388'
p6949
VLee Kah How
p6950
sS'100001789400596'
p6951
VSeng Panha
p6952
saa(lp6953
S'10150115667969384'
p6954
aS'1293158045'
p6955
a(dp6956
S'600967843'
p6957
VEdwin Liang
p6958
sS'648488998'
p6959
VYan Seng Lim
p6960
sS'784442136'
p6961
VJoan Fun
p6962
sS'530981728'
p6963
VBelinda See
p6964
sS'1268026419'
p6965
VLow Yu Ting Coco
p6966
sS'577604544'
p6967
VJeslyn Tan
p6968
sS'745598388'
p6969
VLee Kah How
p6970
sS'585984822'
p6971
VKuek Jia Li
p6972
sS'604548559'
p6973
VFeng Weidong
p6974
sS'636721580'
p6975
VChua Jie Xuan
p6976
sS'601910818'
p6977
VLee Chu Yong Mark
p6978
sS'1269384405'
p6979
VTheron Ng
p6980
sS'566959383'
p6981
VClara Teo
p6982
saa(lp6983
S'10150115228534384'
p6984
aS'1293110188'
p6985
a(dp6986
S'600967843'
p6987
VEdwin Liang
p6988
sS'100000800881373'
p6989
VJia Jun Yap
p6990
sS'566959383'
p6991
VClara Teo
p6992
sS'784442136'
p6993
VJoan Fun
p6994
sS'585984822'
p6995
VKuek Jia Li
p6996
sS'601910818'
p6997
VLee Chu Yong Mark
p6998
saa(lp6999
S'1515136202084'
p7000
aS'1292940807'
p7001
a(dp7002
S'636721580'
p7003
VChua Jie Xuan
p7004
sS'1344814444'
p7005
VSee Kai Yuan
p7006
sS'601910818'
p7007
VLee Chu Yong Mark
p7008
saa(lp7009
S'1504081368083'
p7010
aS'1293089213'
p7011
a(dp7012
S'600967843'
p7013
VEdwin Liang
p7014
sS'1344814444'
p7015
VSee Kai Yuan
p7016
sS'648488998'
p7017
VYan Seng Lim
p7018
sS'745598388'
p7019
VLee Kah How
p7020
sS'604548559'
p7021
VFeng Weidong
p7022
sS'636721580'
p7023
VChua Jie Xuan
p7024
sS'601910818'
p7025
VLee Chu Yong Mark
p7026
sS'1269384405'
p7027
VTheron Ng
p7028
saa(lp7029
S'1504097888496'
p7030
aS'1293090514'
p7031
a(dp7032
S'1530519872'
p7033
VHelin Gao
p7034
sS'100000800881373'
p7035
VJia Jun Yap
p7036
sS'566959383'
p7037
VClara Teo
p7038
sS'784442136'
p7039
VJoan Fun
p7040
sS'585984822'
p7041
VKuek Jia Li
p7042
sS'601910818'
p7043
VLee Chu Yong Mark
p7044
saa(lp7045
S'1504080408059'
p7046
aS'1293089181'
p7047
a(dp7048
S'600967843'
p7049
VEdwin Liang
p7050
sS'1344814444'
p7051
VSee Kai Yuan
p7052
sS'648488998'
p7053
VYan Seng Lim
p7054
sS'745598388'
p7055
VLee Kah How
p7056
sS'604548559'
p7057
VFeng Weidong
p7058
sS'636721580'
p7059
VChua Jie Xuan
p7060
sS'601910818'
p7061
VLee Chu Yong Mark
p7062
sS'1269384405'
p7063
VTheron Ng
p7064
saa(lp7065
S'1504098088501'
p7066
aS'1293090534'
p7067
a(dp7068
S'600967843'
p7069
VEdwin Liang
p7070
sS'1530519872'
p7071
VHelin Gao
p7072
sS'100000800881373'
p7073
VJia Jun Yap
p7074
sS'648488998'
p7075
VYan Seng Lim
p7076
sS'784442136'
p7077
VJoan Fun
p7078
sS'585984822'
p7079
VKuek Jia Li
p7080
sS'601910818'
p7081
VLee Chu Yong Mark
p7082
saa(lp7083
S'1504105208679'
p7084
aS'1293091107'
p7085
a(dp7086
S'600967843'
p7087
VEdwin Liang
p7088
sS'1344814444'
p7089
VSee Kai Yuan
p7090
sS'100000800881373'
p7091
VJia Jun Yap
p7092
sS'1539733590'
p7093
VYvonne Fong
p7094
sS'784442136'
p7095
VJoan Fun
p7096
sS'1415711097'
p7097
VJeklone Yong
p7098
sS'566959383'
p7099
VClara Teo
p7100
sS'683509572'
p7101
VAmanda Lee
p7102
sS'584023606'
p7103
VCamelia Tang
p7104
sS'577604544'
p7105
VJeslyn Tan
p7106
sS'745598388'
p7107
VLee Kah How
p7108
sS'585984822'
p7109
VKuek Jia Li
p7110
sS'589393559'
p7111
VJennifer Yip
p7112
sS'636721580'
p7113
VChua Jie Xuan
p7114
sS'601910818'
p7115
VLee Chu Yong Mark
p7116
sS'745121238'
p7117
VRena Lee
p7118
sS'648488998'
p7119
VYan Seng Lim
p7120
saa(lp7121
S'1504080928072'
p7122
aS'1293089198'
p7123
a(dp7124
S'600967843'
p7125
VEdwin Liang
p7126
sS'1344814444'
p7127
VSee Kai Yuan
p7128
sS'648488998'
p7129
VYan Seng Lim
p7130
sS'745598388'
p7131
VLee Kah How
p7132
sS'604548559'
p7133
VFeng Weidong
p7134
sS'636721580'
p7135
VChua Jie Xuan
p7136
sS'601910818'
p7137
VLee Chu Yong Mark
p7138
sS'1269384405'
p7139
VTheron Ng
p7140
saa(lp7141
S'481221910818'
p7142
aS'1292943448'
p7143
a(dp7144
S'600967843'
p7145
VEdwin Liang
p7146
sS'601910818'
p7147
VLee Chu Yong Mark
p7148
sS'648488998'
p7149
VYan Seng Lim
p7150
sS'10150189133790819'
p7151
VMX
p7152
sS'604548559'
p7153
VFeng Weidong
p7154
sS'636721580'
p7155
VChua Jie Xuan
p7156
sS'1344814444'
p7157
VSee Kai Yuan
p7158
sS'1269384405'
p7159
VTheron Ng
p7160
saa(lp7161
S'481094790818'
p7162
aS'1292919123'
p7163
a(dp7164
S'601910818'
p7165
VLee Chu Yong Mark
p7166
sS'100001789400596'
p7167
VSeng Panha
p7168
saa(lp7169
S'481094590818'
p7170
aS'1292919091'
p7171
a(dp7172
S'601910818'
p7173
VLee Chu Yong Mark
p7174
sS'745598388'
p7175
VLee Kah How
p7176
saa(lp7177
S'1515230364438'
p7178
aS'1292945103'
p7179
a(dp7180
S'600967843'
p7181
VEdwin Liang
p7182
sS'1344814444'
p7183
VSee Kai Yuan
p7184
sS'745598388'
p7185
VLee Kah How
p7186
sS'683509572'
p7187
VAmanda Lee
p7188
sS'100001281545008'
p7189
VSreykee Ven
p7190
sS'604548559'
p7191
VFeng Weidong
p7192
sS'636721580'
p7193
VChua Jie Xuan
p7194
sS'601910818'
p7195
VLee Chu Yong Mark
p7196
sS'1269384405'
p7197
VTheron Ng
p7198
sS'648488998'
p7199
VYan Seng Lim
p7200
saa(lp7201
S'1515109561418'
p7202
aS'1292939911'
p7203
a(dp7204
S'636721580'
p7205
VChua Jie Xuan
p7206
sS'1344814444'
p7207
VSee Kai Yuan
p7208
sS'601910818'
p7209
VLee Chu Yong Mark
p7210
saa(lp7211
S'485672223606'
p7212
aS'1292923593'
p7213
a(dp7214
S'601910818'
p7215
VLee Chu Yong Mark
p7216
sS'648488998'
p7217
VYan Seng Lim
p7218
sS'745598388'
p7219
VLee Kah How
p7220
saa(lp7221
S'1515153802524'
p7222
aS'1292941831'
p7223
a(dp7224
S'601910818'
p7225
VLee Chu Yong Mark
p7226
sS'100001711476197'
p7227
VEmma Cutety
p7228
sS'728785915'
p7229
VLydia Tan
p7230
sS'745598388'
p7231
VLee Kah How
p7232
sS'100001789400596'
p7233
VSeng Panha
p7234
saa(lp7235
S'1515224724297'
p7236
aS'1292944906'
p7237
a(dp7238
S'601910818'
p7239
VLee Chu Yong Mark
p7240
sS'604548559'
p7241
VFeng Weidong
p7242
saa(lp7243
S'1515216204084'
p7244
aS'1292944482'
p7245
a(dp7246
S'600967843'
p7247
VEdwin Liang
p7248
sS'1344814444'
p7249
VSee Kai Yuan
p7250
sS'648488998'
p7251
VYan Seng Lim
p7252
sS'745598388'
p7253
VLee Kah How
p7254
sS'604548559'
p7255
VFeng Weidong
p7256
sS'636721580'
p7257
VChua Jie Xuan
p7258
sS'601910818'
p7259
VLee Chu Yong Mark
p7260
sS'1269384405'
p7261
VTheron Ng
p7262
saa(lp7263
S'1515228284386'
p7264
aS'1292945022'
p7265
a(dp7266
S'600967843'
p7267
VEdwin Liang
p7268
sS'648488998'
p7269
VYan Seng Lim
p7270
sS'604548559'
p7271
VFeng Weidong
p7272
sS'636721580'
p7273
VChua Jie Xuan
p7274
sS'601910818'
p7275
VLee Chu Yong Mark
p7276
sS'1269384405'
p7277
VTheron Ng
p7278
saa(lp7279
S'1515216044080'
p7280
aS'1292944473'
p7281
a(dp7282
S'600967843'
p7283
VEdwin Liang
p7284
sS'745598388'
p7285
VLee Kah How
p7286
sS'604548559'
p7287
VFeng Weidong
p7288
sS'636721580'
p7289
VChua Jie Xuan
p7290
sS'601910818'
p7291
VLee Chu Yong Mark
p7292
sS'1269384405'
p7293
VTheron Ng
p7294
saa(lp7295
S'481992654572'
p7296
aS'1292935695'
p7297
a(dp7298
S'648488998'
p7299
VYan Seng Lim
p7300
sS'683509572'
p7301
VAmanda Lee
p7302
sS'604548559'
p7303
VFeng Weidong
p7304
sS'636721580'
p7305
VChua Jie Xuan
p7306
sS'601910818'
p7307
VLee Chu Yong Mark
p7308
sS'1539733590'
p7309
VYvonne Fong
p7310
saa(lp7311
S'481992644572'
p7312
aS'1292935692'
p7313
a(dp7314
S'600967843'
p7315
VEdwin Liang
p7316
sS'1344814444'
p7317
VSee Kai Yuan
p7318
sS'648488998'
p7319
VYan Seng Lim
p7320
sS'745598388'
p7321
VLee Kah How
p7322
sS'604548559'
p7323
VFeng Weidong
p7324
sS'636721580'
p7325
VChua Jie Xuan
p7326
sS'601910818'
p7327
VLee Chu Yong Mark
p7328
saa(lp7329
S'481990654572'
p7330
aS'1292935308'
p7331
a(dp7332
S'600967843'
p7333
VEdwin Liang
p7334
sS'601910818'
p7335
VLee Chu Yong Mark
p7336
sS'648488998'
p7337
VYan Seng Lim
p7338
sS'604548559'
p7339
VFeng Weidong
p7340
saa(lp7341
S'481991879572'
p7342
aS'1292935529'
p7343
a(dp7344
S'601910818'
p7345
VLee Chu Yong Mark
p7346
sS'1539733590'
p7347
VYvonne Fong
p7348
sS'530981728'
p7349
VBelinda See
p7350
sS'683509572'
p7351
VAmanda Lee
p7352
sS'728785915'
p7353
VLydia Tan
p7354
sS'584023606'
p7355
VCamelia Tang
p7356
sS'745598388'
p7357
VLee Kah How
p7358
sS'589393559'
p7359
VJennifer Yip
p7360
sS'636721580'
p7361
VChua Jie Xuan
p7362
sS'1268026419'
p7363
VLow Yu Ting Coco
p7364
sS'648488998'
p7365
VYan Seng Lim
p7366
saa(lp7367
S'485671318606'
p7368
aS'1292923388'
p7369
a(dp7370
S'601910818'
p7371
VLee Chu Yong Mark
p7372
sS'745598388'
p7373
VLee Kah How
p7374
saa(lp7375
S'481094535818'
p7376
aS'1292919079'
p7377
a(dp7378
S'784442136'
p7379
VJoan Fun
p7380
sS'601910818'
p7381
VLee Chu Yong Mark
p7382
sS'1344814444'
p7383
VSee Kai Yuan
p7384
sS'728785915'
p7385
VLydia Tan
p7386
sS'745598388'
p7387
VLee Kah How
p7388
saa(lp7389
S'481094990818'
p7390
aS'1292919158'
p7391
a(dp7392
S'601910818'
p7393
VLee Chu Yong Mark
p7394
sS'100001711476197'
p7395
VEmma Cutety
p7396
sS'100001281545008'
p7397
VSreykee Ven
p7398
sS'784442136'
p7399
VJoan Fun
p7400
sS'100001789400596'
p7401
VSeng Panha
p7402
sS'10150189173210819'
p7403
Vsreyrath sao
p7404
sS'728785915'
p7405
VLydia Tan
p7406
sS'100001347709558'
p7407
VSavorn Meas
p7408
sS'745598388'
p7409
VLee Kah How
p7410
sS'100001675463640'
p7411
VPhallin Sim
p7412
sS'1344814444'
p7413
VSee Kai Yuan
p7414
sS'100001524472642'
p7415
Vg Hii Jr\u016bk T\u014dch
p7416
saa(lp7417
S'481099010818'
p7418
aS'1292919800'
p7419
a(dp7420
S'600967843'
p7421
VEdwin Liang
p7422
sS'1344814444'
p7423
VSee Kai Yuan
p7424
sS'648488998'
p7425
VYan Seng Lim
p7426
sS'745598388'
p7427
VLee Kah How
p7428
sS'604548559'
p7429
VFeng Weidong
p7430
sS'636721580'
p7431
VChua Jie Xuan
p7432
sS'601910818'
p7433
VLee Chu Yong Mark
p7434
sS'1269384405'
p7435
VTheron Ng
p7436
saa(lp7437
S'478653959770'
p7438
aS'1292143438'
p7439
a(dp7440
S'669654770'
p7441
VFan Yu Zhen
p7442
sS'100000513474595'
p7443
VTimothy Yap
p7444
sS'601910818'
p7445
VLee Chu Yong Mark
p7446
saa(lp7447
S'345744938390'
p7448
aS'1267887172'
p7449
a(dp7450
S'736201622'
p7451
VDarren Lum
p7452
sS'1047768460'
p7453
VEvelyn He Xinyi
p7454
sS'640066776'
p7455
VCao Yun
p7456
sS'548517812'
p7457
VOng MurFei
p7458
sS'735798259'
p7459
VLeong Zhao Hong
p7460
sS'100000513474595'
p7461
VTimothy Yap
p7462
sS'648193181'
p7463
VHan Wei
p7464
sS'745548182'
p7465
VSzeto Kah Keong
p7466
sS'1070107257'
p7467
VYuyang Lei
p7468
sS'832975103'
p7469
VAlvin Liew
p7470
sS'601910818'
p7471
VLee Chu Yong Mark
p7472
sS'662111446'
p7473
VLim Chern Yuen
p7474
sS'547022235'
p7475
VJohn Yong
p7476
sS'1086483192'
p7477
VHoang Lan David
p7478
sS'530546872'
p7479
VCheryl Lee
p7480
saa.